Microchip MPLAB XC8 Compiler V1.41 ()

Linker command line:

-W-3 --edf=C:\Program Files (x86)\Microchip\xc8\v1.41\dat\en_msgs.txt -cs \
  -h+dist/default/production\AB-1.X.production.sym \
  --cmf=dist/default/production\AB-1.X.production.cmf -z -Q18LF66K40 \
  -oC:\Users\R&D\AppData\Local\Temp\s5c8.2 \
  -Mdist/default/production/AB-1.X.production.map -E1 -ver=XC8 \
  -ASTACK=0755h-0dddh -pstack=STACK -ACODE=00h-0FC7Bh -ACONST=00h-0FC7Bh \
  -ASMALLCONST=0E00h-0EFFhx238,0FC00h-0FC7Bh -AMEDIUMCONST=0E00h-0FC7Bh \
  -ACOMRAM=01h-05Fh -AABS1=00h-0DDDh -ABIGRAM=01h-0DDDh \
  -ARAM=060h-0FFh,0100h-01FFhx12,0D00h-0DDDh -ABANK0=060h-0FFh \
  -ABANK1=0100h-01FFh -ABANK2=0200h-02FFh -ABANK3=0300h-03FFh \
  -ABANK4=0400h-04FFh -ABANK5=0500h-05FFh -ABANK6=0600h-06FFh \
  -ABANK7=0700h-07FFh -ABANK8=0800h-08FFh -ABANK9=0900h-09FFh \
  -ABANK10=0A00h-0AFFh -ABANK11=0B00h-0BFFh -ABANK12=0C00h-0CFFh \
  -ABANK13=0D00h-0DDDh \
  -ASFR=0DDEh-0DFFh,0E00h-0EFFh,0F00h-0F5Fh,0F60h-0FFFh \
  -preset_vec=00h,intcode=08h,intcodelo,powerup,init -pramtop=0E00h \
  -psmallconst=SMALLCONST -pmediumconst=MEDIUMCONST -pconst=CONST \
  -AFARRAM=00h-00h -ACONFIG=0300000h-030000Bh -pconfig=CONFIG \
  -AIDLOC=0200000h-020000Fh -pidloc=IDLOC -AEEDATA=0310000h-03103FFh \
  -peeprom_data=EEDATA \
  -prdata=COMRAM,nvrram=COMRAM,nvbit=COMRAM,rbss=COMRAM,rbit=COMRAM \
  -pfarbss=FARRAM,fardata=FARRAM,nvFARRAM=FARRAM \
  -pintsave_regs=BIGRAM,bigbss=BIGRAM,bigdata=BIGRAM -pbss=RAM \
  -pidata=CODE,irdata=CODE,ibigdata=CODE,ifardata=CODE -prparam=COMRAM \
  C:\Users\R&D\AppData\Local\Temp\s5c8.obj \
  dist/default/production\AB-1.X.production.obj 

Object code version is 3.11

Machine type is 18LF66K40

Call graph: (short form)




                Name                               Link     Load   Length Selector   Space Scale
C:\Users\R&D\AppData\Local\Temp\s5c8.obj
                init                                17E      17E        4        4       0
                reset_vec                             0        0        4        0       0
                idloc                            200000   200000       10   200000       0
                config                           300000   300000        C   300000       0
dist/default/production\AB-1.X.production.obj
                intcode                               8        8      176        4       0
                temp                                 57       57        1        1       1
                text219                            7ACA     7ACA       12     3C4F       0
                text218                            6568     6568       6E        4       0
                text217                            7AB8     7AB8       12     3C4F       0
                text216                            7AA6     7AA6       12     3C4F       0
                text215                            6E4C     6E4C       48        4       0
                text214                            7866     7866       1C        4       0
                text213                            784A     784A       1C        4       0
                text212                            782E     782E       1C        4       0
                text211                            75D4     75D4       28        4       0
                text210                            41D6     41D6      10C        4       0
                text209                            7730     7730       1E        4       0
                text208                            712E     712E       38        4       0
                text207                            6014     6014       92        4       0
                text206                            79CE     79CE       18     3C4F       0
                text205                            5510     5510       BE        4       0
                text204                            7954     7954       1A     3C4F       0
                text203                            6BD6     6BD6       56        4       0
                text202                            6DBA     6DBA       4A        4       0
                text201                            5DC6     5DC6       96        4       0
                text200                            7812     7812       1C        4       0
                text199                            6F5C     6F5C       40        4       0
                text198                            77F6     77F6       1C        4       0
                text197                            7BC4     7BC4        8     3C4F       0
                text196                            74DA     74DA       2C        4       0
                text195                            5E5C     5E5C       94        4       0
                text194                            60A6     60A6       8E        4       0
                text193                            4DD6     4DD6       DA        4       0
                text192                            538A     538A       C4        4       0
                text191                            6F9C     6F9C       3E        4       0
                text190                            7712     7712       1E        4       0
                text189                            648A     648A       70        4       0
                text188                            70F6     70F6       38        4       0
                text187                            7A94     7A94       12     3C4F       0
                text186                            7368     7368       30        4       0
                text185                            6B26     6B26       5A        4       0
                text184                            7A82     7A82       12     3C4F       0
                text183                            79B6     79B6       18     3C4F       0
                text182                            76F2     76F2       20        4       0
                text181                            76D2     76D2       20        4       0
                text180                            5F82     5F82       92        4       0
                text179                            4CF8     4CF8       DE        4       0
                text178                            72A2     72A2       34        4       0
                text177                            63A6     63A6       74        4       0
                text176                            7A70     7A70       12     3C4F       0
                text175                            7338     7338       30        4       0
                text174                            6ACC     6ACC       5A        4       0
                text173                            7A5E     7A5E       12     3C4F       0
                text172                            4C1A     4C1A       DE        4       0
                text171                            726E     726E       34        4       0
                text170                            6332     6332       74        4       0
                text169                            58AA     58AA       B0        4       0
                text168                            7648     7648       26        4       0
                text167                            5EF0     5EF0       92        4       0
                text166                            33CA     33CA      172        4       0
                text165                            793A     793A       1A     3C4F       0
                text164                            7920     7920       1A     3C4F       0
                text163                            7BBC     7BBC        8     3C4F       0
                text162                            6134     6134       8A        4       0
                text161                            799E     799E       18     3C4F       0
                text160                            7BB4     7BB4        8     3C4F       0
                text159                            5D30     5D30       96        4       0
                text158                            7B8A     7B8A        A     3C4F       0
                text157                            7BFC     7BFC        4     3C4F       0
                text156                            7BF8     7BF8        4     3C4F       0
                text155                            7A26     7A26       14     3C4F       0
                text154                            7B6A     7B6A        C     3C4F       0
                text152                            69B6     69B6       5E        4       0
                text151                            74AC     74AC       2E        4       0
                text150                            719C     719C       36        4       0
                text149                            57FA     57FA       B0        4       0
                text148                            6A70     6A70       5C        4       0
                text147                            7166     7166       36        4       0
                text146                            2D42     2D42      1BE        4       0
                text145                            766E     766E       24        4       0
                text144                            7906     7906       1A     3C4F       0
                text143                            6246     6246       78        4       0
                text142                            66A6     66A6       66        4       0
                text141                            3D44     3D44      132        4       0
                text140                            747E     747E       2E        4       0
                text139                            70BE     70BE       38        4       0
                text138                            62BE     62BE       74        4       0
                text137                            3258     3258      172        4       0
                text136                            3FA6     3FA6      11C        4       0
                text135                            5A08     5A08       AE        4       0
                text134                            10BE     10BE      376        4       0
                text133                            3818     3818      160        4       0
                text132                            353C     353C      170        4       0
                text131                            45D0     45D0       EA        4       0
                text130                            7A4C     7A4C       12     3C4F       0
                text129                            7B08     7B08        E     3C4F       0
                text128                            3C10     3C10      134        4       0
                text127                            5744     5744       B6        4       0
                text126                            4EB0     4EB0       D8        4       0
                text125                            2F00     2F00      1B4        4       0
                text124                            40C2     40C2      114        4       0
                text123                            6956     6956       60        4       0
                text122                            7BDE     7BDE        6     3C4F       0
                text121                            67D4     67D4       62        4       0
                text120                            7BAC     7BAC        8     3C4F       0
                text119                            7BA4     7BA4        8     3C4F       0
                text118                            7B9C     7B9C        8     3C4F       0
                text117                            7B94     7B94        8     3C4F       0
                text116                            3978     3978      152        4       0
                text115                            7B5E     7B5E        C     3C4F       0
                text114                            2B42     2B42      200        4       0
                text113                            7986     7986       18     3C4F       0
                text112                            1770     1770      2E6        4       0
                text111                            6770     6770       64        4       0
                text110                            7B52     7B52        C     3C4F       0
                text109                            7BD8     7BD8        6     3C4F       0
                text108                            61BE     61BE       88        4       0
                text107                            5B5A     5B5A       A2        4       0
                text106                            7450     7450       2E        4       0
                text105                            55CE     55CE       BC        4       0
                text104                            2720     2720      21E        4       0
                text103                            4A52     4A52       E6        4       0
                text102                            7422     7422       2E        4       0
                text101                            496C     496C       E6        4       0
                text100                            595A     595A       AE        4       0
                text99                             505A     505A       D2        4       0
                text98                             73F4     73F4       2E        4       0
                text97                             4886     4886       E6        4       0
                text96                             723A     723A       34        4       0
                text95                             44DE     44DE       F2        4       0
                text94                             4F88     4F88       D2        4       0
                text93                             73C6     73C6       2E        4       0
                text92                             47A0     47A0       E6        4       0
                text91                             7398     7398       2E        4       0
                text90                             46BA     46BA       E6        4       0
                text89                             568A     568A       BA        4       0
                text88                             30B4     30B4      1A4        4       0
                text87                             7BF4     7BF4        4     3C4F       0
                text86                             7AFA     7AFA        E     3C4F       0
                text85                             68F6     68F6       60        4       0
                text84                             7BF0     7BF0        4     3C4F       0
                text83                             7B46     7B46        C     3C4F       0
                text82                             7B3A     7B3A        C     3C4F       0
                text81                             78EC     78EC       1A     3C4F       0
                text80                             78D2     78D2       1A     3C4F       0
                text79                             64FA     64FA       6E        4       0
                text78                             663E     663E       68        4       0
                text77                             6F1A     6F1A       42        4       0
                text76                             75AC     75AC       28        4       0
                text75                             79FC     79FC       16     3C4F       0
                text74                             7BEC     7BEC        4     3C4F       0
                text73                             6E04     6E04       48        4       0
                text72                             755A     755A       2A        4       0
                text71                             6896     6896       60        4       0
                text70                             6C7E     6C7E       52        4       0
                text69                             3ACA     3ACA      146        4       0
                text68                             512C     512C       CC        4       0
                text67                             670C     670C       64        4       0
                text66                             24EC     24EC      234        4       0
                text65                             5C9A     5C9A       96        4       0
                text64                             7206     7206       34        4       0
                text63                             1FD8     1FD8      2B6        4       0
                text62                             65D6     65D6       68        4       0
                text61                             36AC     36AC      16C        4       0
                text60                             52C2     52C2       C8        4       0
                text59                             6D70     6D70       4A        4       0
                text58                             71D2     71D2       34        4       0
                text57                             4B38     4B38       E2        4       0
                text56                             7AEC     7AEC        E     3C4F       0
                text55                             7BE8     7BE8        4     3C4F       0
                text54                             7BD2     7BD2        6     3C4F       0
                text53                             78B8     78B8       1A     3C4F       0
                text52                             7BE4     7BE4        4     3C4F       0
                text51                             6C2C     6C2C       52        4       0
                text50                             77DA     77DA       1C        4       0
                text49                             77BE     77BE       1C        4       0
                text48                             77A2     77A2       1C        4       0
                text47                             7584     7584       28        4       0
                text46                             3E76     3E76      130        4       0
                text45                             5AB6     5AB6       A4        4       0
                text44                             796E     796E       18     3C4F       0
                text43                             43E8     43E8       F6        4       0
                text42                             789E     789E       1A     3C4F       0
                text41                             6A14     6A14       5C        4       0
                text40                             7A3A     7A3A       12     3C4F       0
                text39                             7786     7786       1C        4       0
                text38                             6ED8     6ED8       42        4       0
                text37                             1A56     1A56      2C2        4       0
                text36                             7B2E     7B2E        C     3C4F       0
                text35                             228E     228E      25E        4       0
                text34                              CDA      CDA      3E4        4       0
                text33                             1434     1434      33C        4       0
                text32                             776A     776A       1C        4       0
                text31                             641A     641A       70        4       0
                text30                             6E94     6E94       44        4       0
                text29                             42E2     42E2      106        4       0
                text28                             293E     293E      204        4       0
                text27                             1D18     1D18      2C0        4       0
                text26                             7B80     7B80        A     3C4F       0
                text25                             7B76     7B76        A     3C4F       0
                text24                             7622     7622       26        4       0
                text23                             7BCC     7BCC        6     3C4F       0
                text22                             544E     544E       C2        4       0
                text21                             6D20     6D20       50        4       0
                text20                             6CD0     6CD0       50        4       0
                text19                             51F8     51F8       CA        4       0
                text18                             7ADC     7ADC       10     3C4F       0
                text17                             75FC     75FC       26        4       0
                text16                             7530     7530       2A        4       0
                text15                             7506     7506       2A        4       0
                text14                             76B2     76B2       20        4       0
                text13                             7086     7086       38        4       0
                text12                             7692     7692       20        4       0
                text11                             7308     7308       30        4       0
                text10                             774E     774E       1C        4       0
                text9                              704E     704E       38        4       0
                text8                              72D6     72D6       32        4       0
                text7                              7016     7016       38        4       0
                text6                              6FDA     6FDA       3C        4       0
                text5                              7A12     7A12       14     3C4F       0
                text4                              7B22     7B22        C     3C4F       0
                text3                              7B16     7B16        C     3C4F       0
                text2                              6B80     6B80       56        4       0
                text1                               182      182      B58        4       0
                text0                              6836     6836       60        4       0
                cstackCOMRAM                          1        1       2C        1       1
                cstackBANK0                          60       60       43       60       1
                cstackBANK1                         1FA      1FA        2      100       1
                bssBIGRAM                           3C0      3C0      395      3C0       1
                bssBANK3                            300      300       C0      300       1
                bssBANK2                            200      200       9A      200       1
                dataBANK1                           1E4      1E4       16      100       1
                bssBANK1                            100      100       E4      100       1
                dataBANK0                            E4       E4       1B       60       1
                bssBANK0                             A3       A3       41       60       1
                bssCOMRAM                            2D       2D       2A        1       1
                cinit                              5BFC     5BFC       9E        4       0
                idataBANK1                         79E6     79E6       16     3C4F       0
                idataBANK0                         7882     7882       1B        4       0

TOTAL           Name                               Link     Load   Length     Space
        CLASS   STACK          

        CLASS   CODE           
                intcode                               8        8      176         0
                init                                17E      17E        4         0
                reset_vec                             0        0        4         0
                text219                            7ACA     7ACA       12         0
                text218                            6568     6568       6E         0
                text217                            7AB8     7AB8       12         0
                text216                            7AA6     7AA6       12         0
                text215                            6E4C     6E4C       48         0
                text214                            7866     7866       1C         0
                text213                            784A     784A       1C         0
                text212                            782E     782E       1C         0
                text211                            75D4     75D4       28         0
                text210                            41D6     41D6      10C         0
                text209                            7730     7730       1E         0
                text208                            712E     712E       38         0
                text207                            6014     6014       92         0
                text206                            79CE     79CE       18         0
                text205                            5510     5510       BE         0
                text204                            7954     7954       1A         0
                text203                            6BD6     6BD6       56         0
                text202                            6DBA     6DBA       4A         0
                text201                            5DC6     5DC6       96         0
                text200                            7812     7812       1C         0
                text199                            6F5C     6F5C       40         0
                text198                            77F6     77F6       1C         0
                text197                            7BC4     7BC4        8         0
                text196                            74DA     74DA       2C         0
                text195                            5E5C     5E5C       94         0
                text194                            60A6     60A6       8E         0
                text193                            4DD6     4DD6       DA         0
                text192                            538A     538A       C4         0
                text191                            6F9C     6F9C       3E         0
                text190                            7712     7712       1E         0
                text189                            648A     648A       70         0
                text188                            70F6     70F6       38         0
                text187                            7A94     7A94       12         0
                text186                            7368     7368       30         0
                text185                            6B26     6B26       5A         0
                text184                            7A82     7A82       12         0
                text183                            79B6     79B6       18         0
                text182                            76F2     76F2       20         0
                text181                            76D2     76D2       20         0
                text180                            5F82     5F82       92         0
                text179                            4CF8     4CF8       DE         0
                text178                            72A2     72A2       34         0
                text177                            63A6     63A6       74         0
                text176                            7A70     7A70       12         0
                text175                            7338     7338       30         0
                text174                            6ACC     6ACC       5A         0
                text173                            7A5E     7A5E       12         0
                text172                            4C1A     4C1A       DE         0
                text171                            726E     726E       34         0
                text170                            6332     6332       74         0
                text169                            58AA     58AA       B0         0
                text168                            7648     7648       26         0
                text167                            5EF0     5EF0       92         0
                text166                            33CA     33CA      172         0
                text165                            793A     793A       1A         0
                text164                            7920     7920       1A         0
                text163                            7BBC     7BBC        8         0
                text162                            6134     6134       8A         0
                text161                            799E     799E       18         0
                text160                            7BB4     7BB4        8         0
                text159                            5D30     5D30       96         0
                text158                            7B8A     7B8A        A         0
                text157                            7BFC     7BFC        4         0
                text156                            7BF8     7BF8        4         0
                text155                            7A26     7A26       14         0
                text154                            7B6A     7B6A        C         0
                text152                            69B6     69B6       5E         0
                text151                            74AC     74AC       2E         0
                text150                            719C     719C       36         0
                text149                            57FA     57FA       B0         0
                text148                            6A70     6A70       5C         0
                text147                            7166     7166       36         0
                text146                            2D42     2D42      1BE         0
                text145                            766E     766E       24         0
                text144                            7906     7906       1A         0
                text143                            6246     6246       78         0
                text142                            66A6     66A6       66         0
                text141                            3D44     3D44      132         0
                text140                            747E     747E       2E         0
                text139                            70BE     70BE       38         0
                text138                            62BE     62BE       74         0
                text137                            3258     3258      172         0
                text136                            3FA6     3FA6      11C         0
                text135                            5A08     5A08       AE         0
                text134                            10BE     10BE      376         0
                text133                            3818     3818      160         0
                text132                            353C     353C      170         0
                text131                            45D0     45D0       EA         0
                text130                            7A4C     7A4C       12         0
                text129                            7B08     7B08        E         0
                text128                            3C10     3C10      134         0
                text127                            5744     5744       B6         0
                text126                            4EB0     4EB0       D8         0
                text125                            2F00     2F00      1B4         0
                text124                            40C2     40C2      114         0
                text123                            6956     6956       60         0
                text122                            7BDE     7BDE        6         0
                text121                            67D4     67D4       62         0
                text120                            7BAC     7BAC        8         0
                text119                            7BA4     7BA4        8         0
                text118                            7B9C     7B9C        8         0
                text117                            7B94     7B94        8         0
                text116                            3978     3978      152         0
                text115                            7B5E     7B5E        C         0
                text114                            2B42     2B42      200         0
                text113                            7986     7986       18         0
                text112                            1770     1770      2E6         0
                text111                            6770     6770       64         0
                text110                            7B52     7B52        C         0
                text109                            7BD8     7BD8        6         0
                text108                            61BE     61BE       88         0
                text107                            5B5A     5B5A       A2         0
                text106                            7450     7450       2E         0
                text105                            55CE     55CE       BC         0
                text104                            2720     2720      21E         0
                text103                            4A52     4A52       E6         0
                text102                            7422     7422       2E         0
                text101                            496C     496C       E6         0
                text100                            595A     595A       AE         0
                text99                             505A     505A       D2         0
                text98                             73F4     73F4       2E         0
                text97                             4886     4886       E6         0
                text96                             723A     723A       34         0
                text95                             44DE     44DE       F2         0
                text94                             4F88     4F88       D2         0
                text93                             73C6     73C6       2E         0
                text92                             47A0     47A0       E6         0
                text91                             7398     7398       2E         0
                text90                             46BA     46BA       E6         0
                text89                             568A     568A       BA         0
                text88                             30B4     30B4      1A4         0
                text87                             7BF4     7BF4        4         0
                text86                             7AFA     7AFA        E         0
                text85                             68F6     68F6       60         0
                text84                             7BF0     7BF0        4         0
                text83                             7B46     7B46        C         0
                text82                             7B3A     7B3A        C         0
                text81                             78EC     78EC       1A         0
                text80                             78D2     78D2       1A         0
                text79                             64FA     64FA       6E         0
                text78                             663E     663E       68         0
                text77                             6F1A     6F1A       42         0
                text76                             75AC     75AC       28         0
                text75                             79FC     79FC       16         0
                text74                             7BEC     7BEC        4         0
                text73                             6E04     6E04       48         0
                text72                             755A     755A       2A         0
                text71                             6896     6896       60         0
                text70                             6C7E     6C7E       52         0
                text69                             3ACA     3ACA      146         0
                text68                             512C     512C       CC         0
                text67                             670C     670C       64         0
                text66                             24EC     24EC      234         0
                text65                             5C9A     5C9A       96         0
                text64                             7206     7206       34         0
                text63                             1FD8     1FD8      2B6         0
                text62                             65D6     65D6       68         0
                text61                             36AC     36AC      16C         0
                text60                             52C2     52C2       C8         0
                text59                             6D70     6D70       4A         0
                text58                             71D2     71D2       34         0
                text57                             4B38     4B38       E2         0
                text56                             7AEC     7AEC        E         0
                text55                             7BE8     7BE8        4         0
                text54                             7BD2     7BD2        6         0
                text53                             78B8     78B8       1A         0
                text52                             7BE4     7BE4        4         0
                text51                             6C2C     6C2C       52         0
                text50                             77DA     77DA       1C         0
                text49                             77BE     77BE       1C         0
                text48                             77A2     77A2       1C         0
                text47                             7584     7584       28         0
                text46                             3E76     3E76      130         0
                text45                             5AB6     5AB6       A4         0
                text44                             796E     796E       18         0
                text43                             43E8     43E8       F6         0
                text42                             789E     789E       1A         0
                text41                             6A14     6A14       5C         0
                text40                             7A3A     7A3A       12         0
                text39                             7786     7786       1C         0
                text38                             6ED8     6ED8       42         0
                text37                             1A56     1A56      2C2         0
                text36                             7B2E     7B2E        C         0
                text35                             228E     228E      25E         0
                text34                              CDA      CDA      3E4         0
                text33                             1434     1434      33C         0
                text32                             776A     776A       1C         0
                text31                             641A     641A       70         0
                text30                             6E94     6E94       44         0
                text29                             42E2     42E2      106         0
                text28                             293E     293E      204         0
                text27                             1D18     1D18      2C0         0
                text26                             7B80     7B80        A         0
                text25                             7B76     7B76        A         0
                text24                             7622     7622       26         0
                text23                             7BCC     7BCC        6         0
                text22                             544E     544E       C2         0
                text21                             6D20     6D20       50         0
                text20                             6CD0     6CD0       50         0
                text19                             51F8     51F8       CA         0
                text18                             7ADC     7ADC       10         0
                text17                             75FC     75FC       26         0
                text16                             7530     7530       2A         0
                text15                             7506     7506       2A         0
                text14                             76B2     76B2       20         0
                text13                             7086     7086       38         0
                text12                             7692     7692       20         0
                text11                             7308     7308       30         0
                text10                             774E     774E       1C         0
                text9                              704E     704E       38         0
                text8                              72D6     72D6       32         0
                text7                              7016     7016       38         0
                text6                              6FDA     6FDA       3C         0
                text5                              7A12     7A12       14         0
                text4                              7B22     7B22        C         0
                text3                              7B16     7B16        C         0
                text2                              6B80     6B80       56         0
                text1                               182      182      B58         0
                text0                              6836     6836       60         0
                cinit                              5BFC     5BFC       9E         0
                idataBANK1                         79E6     79E6       16         0
                idataBANK0                         7882     7882       1B         0

        CLASS   CONST          

        CLASS   SMALLCONST     

        CLASS   MEDIUMCONST    

        CLASS   COMRAM         
                temp                                 57       57        1         1
                cstackCOMRAM                          1        1       2C         1
                bssCOMRAM                            2D       2D       2A         1

        CLASS   ABS1           

        CLASS   BIGRAM         
                bssBIGRAM                           3C0      3C0      395         1

        CLASS   RAM            

        CLASS   BANK0          
                cstackBANK0                          60       60       43         1
                dataBANK0                            E4       E4       1B         1
                bssBANK0                             A3       A3       41         1

        CLASS   BANK1          
                cstackBANK1                         1FA      1FA        2         1
                dataBANK1                           1E4      1E4       16         1
                bssBANK1                            100      100       E4         1

        CLASS   BANK2          
                bssBANK2                            200      200       9A         1

        CLASS   BANK3          
                bssBANK3                            300      300       C0         1

        CLASS   BANK4          

        CLASS   BANK5          

        CLASS   BANK6          

        CLASS   BANK7          

        CLASS   BANK8          

        CLASS   BANK9          

        CLASS   BANK10         

        CLASS   BANK11         

        CLASS   BANK12         

        CLASS   BANK13         

        CLASS   SFR            

        CLASS   FARRAM         

        CLASS   CONFIG         
                config                           300000   300000        C         0

        CLASS   IDLOC          
                idloc                            200000   200000       10         0

        CLASS   EEDATA         



SEGMENTS        Name                           Load    Length   Top    Selector   Space  Class

                reset_vec                      000000  000004  000004         0       0  CODE    
                cstackCOMRAM                   000001  000057  000058         1       1  COMRAM  
                intcode                        000008  007895  00789D         4       0  CODE    
                cstackBANK0                    000060  00009F  0000FF        60       1  BANK0   
                bssBANK1                       000100  0000FC  0001FC       100       1  BANK1   
                bssBANK2                       000200  00009A  00029A       200       1  BANK2   
                bssBANK3                       000300  0000C0  0003C0       300       1  BANK3   
                bssBIGRAM                      0003C0  000395  000755       3C0       1  BIGRAM  
                text42                         00789E  000362  007C00      3C4F       0  CODE    
                idloc                          200000  000010  200010    200000       0  IDLOC   
                config                         300000  00000C  30000C    300000       0  CONFIG  


UNUSED ADDRESS RANGES

        Name                Unused          Largest block    Delta
        BANK0            0000FF-0000FF                1
        BANK1            0001FC-0001FF                4
        BANK10           000A00-000AFF              100
        BANK11           000B00-000BFF              100
        BANK12           000C00-000CFF              100
        BANK13           000D00-000DDD               DE
        BANK2            00029A-0002FF               66
        BANK7            000755-0007FF               AB
        BANK8            000800-0008FF              100
        BANK9            000900-0009FF              100
        BIGRAM           000058-00005F                8
                         0000FF-0000FF                1
                         0001FC-0001FF                4
                         00029A-0002FF               66
                         000755-000DDD              689
        CODE             000004-000007                4
                         00789D-00789D                1
                         007C00-00FC7B             807C
        COMRAM           000058-00005F                8
        CONST            000004-000007                4
                         00789D-00789D                1
                         007C00-00FC7B             807C
        EEDATA           310000-3103FF              400
        MEDIUMCONST      00789D-00789D                1
                         007C00-00FC7B             807C
        RAM              0000FF-0000FF                1
                         0001FC-0001FF                4
                         00029A-0002FF               66
                         000755-000DDD              100
        SFR              000DDE-000FFF              100
        SMALLCONST       00789D-00789D                1
                         007C00-00FC7B              100
        STACK            000755-000DDD              689

                                  Symbol Table

?_CRC16                                   cstackBANK0  000060
?_PacketDataST7540                        cstackBANK0  000060
?_PacketReadParamST7540                   cstackBANK0  000075
?_SCAN_TAG                                cstackCOMRAM 000009
?_SCAN_TAG_1                              cstackCOMRAM 000009
?___lldiv                                 cstackBANK0  000060
?___lwdiv                                 cstackBANK0  000060
?___wmul                                  cstackBANK0  000060
?_bluetoothCRC                            cstackBANK0  00006F
?_calcrc                                  cstackCOMRAM 000001
?_readBatteryADC                          cstackBANK0  000082
?_readCableADC                            cstackBANK0  000082
?_readEDDADC                              cstackBANK0  000082
?_readEarthADC                            cstackBANK0  000082
?_readEddADC                              cstackBANK0  000060
?_readS1StateADC                          cstackBANK0  000082
?_readTagADC                              cstackCOMRAM 000001
?_variance                                cstackBANK0  00006D
?i2___wmul                                cstackCOMRAM 000001
CHECK_CRC16@crc                           cstackCOMRAM 00000B
CRC16@crc                                 cstackBANK0  00006B
CRC16@data                                cstackBANK0  000069
CRC16@data_p                              cstackBANK0  000060
CRC16@i                                   cstackBANK0  000068
CRC16@length                              cstackBANK0  000062
CheckCRCST7540@expectedCRCUS              cstackBANK0  000070
CheckCRCST7540@packetLenUC                cstackBANK0  000074
CheckCRCST7540@receivedCRCUS              cstackBANK0  000072
Delay_ms@i                                cstackBANK0  000063
Delay_ms@j                                cstackBANK0  000065
Delay_ms@ms                               cstackBANK0  000060
EDD_Blast@EDD_blast_command               cstackBANK0  00006A
EDD_Calibrate@EDD_calibration_command     cstackBANK0  00006A
EDD_Energy_Store@EDD_energy_store_command cstackBANK0  00006A
InitST7540@configDataRXUS                 cstackBANK0  000079
InitST7540@configDataTXUS                 cstackBANK0  000073
InitST7540@frameDataRXUS                  cstackBANK0  000076
InitST7540@frameDataTXUS                  cstackBANK0  000070
PacketReadParamST7540@paramName           cstackBANK0  000079
PacketReadParamST7540@retValueUS          cstackBANK0  00007A
READ_TAG@i                                cstackCOMRAM 00000D
READ_TAG_REVERSE@i                        cstackCOMRAM 00000D
RXReadyISRHandlerST7540@ReadIOCC          cstackCOMRAM 000001
ReadConfigST7540@bitsReceivedUC           cstackBANK0  000068
ReadConfigST7540@configDataUS             cstackBANK0  000062
ReadConfigST7540@discardUC                cstackBANK0  000067
ReadConfigST7540@frameDataUS              cstackBANK0  000060
ReceiveNewDataST7540@discardUC            cstackBANK0  000060
SPIISRHandlerST7540@dataReadUC            cstackCOMRAM 000001
StartTransmitST7540@discardUC             cstackBANK0  000060
Tx_Calibration_Pulses@i                   cstackBANK0  000060
Tx_Calibration_Pulses@j                   cstackBANK0  000062
Tx_Calibration_Pulses@j_6087              cstackBANK0  000064
Tx_Word@bit_pos                           cstackBANK0  000067
Tx_Word@byte                              cstackBANK0  000069
UIO_SAK@SAK                               cstackCOMRAM 000002
UIO_SAK_1@SAK                             cstackCOMRAM 000002
UIO_WRITE@cmd                             cstackCOMRAM 000004
UIO_WRITE@nDigit                          cstackCOMRAM 000006
UIO_WRITE@uio_data                        cstackCOMRAM 000005
UIO_WRITE_1@cmd                           cstackCOMRAM 000004
UIO_WRITE_1@nDigit                        cstackCOMRAM 000006
UIO_WRITE_1@uio_data                      cstackCOMRAM 000005
WriteConfigST7540@bitsSentUC              cstackBANK0  00006F
WriteConfigST7540@configDataUS            cstackBANK0  000068
WriteConfigST7540@discardUC               cstackBANK0  00006E
WriteConfigST7540@frameDataUS             cstackBANK0  000065
_ABB_1                                    bssBIGRAM    0003C0
_ADCLK                                    (abs)        000F57
_ADCON0bits                               (abs)        000F60
_ADCON1                                   (abs)        000F59
_ADPCH                                    (abs)        000F5F
_ADREF                                    (abs)        000F58
_ADRES                                    (abs)        000F63
_ANSELAbits                               (abs)        000E92
_ANSELBbits                               (abs)        000E9A
_ANSELEbits                               (abs)        000EAF
_ANSELFbits                               (abs)        000EB4
_ANSELGbits                               (abs)        000EBC
_BAUD3CONbits                             (abs)        000EF0
_CHECK_CRC16                              text188      0070F6
_COUNTERS                                 bssBANK0     0000A3
_CPUDOZEbits                              (abs)        000E42
_CRC16                                    text128      003C10
_CheckCRCST7540                           text127      005744
_DataReadyST7540                          text122      007BDE
_Delay_100us                              text86       007AFA
_Delay_500us                              text83       007B46
_Delay_500us_X                            text82       007B3A
_Delay_ms                                 text85       0068F6
_EDD_Blast                                text78       00663E
_EDD_Calibrate                            text64       007206
_EDD_Energy_Store                         text77       006F1A
_EDD_Init_Comms                           text75       0079FC
_FLAGS                                    bssCOMRAM    000037
_FVRCON                                   (abs)        000EC4
_FVRCONbits                               (abs)        000EC4
_INT0PPS                                  (abs)        000DF0
_INT3PPS                                  (abs)        000DF3
_INTCONbits                               (abs)        000FF2
_IPR3bits                                 (abs)        000E22
_IPR5bits                                 (abs)        000E24
_InitST7540                               text43       0043E8
_InitST7540Pins                           text47       007584
_LATAbits                                 (abs)        000F79
_LATBbits                                 (abs)        000F7A
_LATCbits                                 (abs)        000F7B
_LATDbits                                 (abs)        000F7C
_LATEbits                                 (abs)        000F7D
_LATFbits                                 (abs)        000F7E
_LATGbits                                 (abs)        000F7F
_LATHbits                                 (abs)        000F80
_LineIdleST7540                           text110      007B52
_NVMADRH                                  (abs)        000F75
_NVMADRL                                  (abs)        000F74
_NVMCON1bits                              (abs)        000F77
_NVMCON2                                  (abs)        000F78
_NVMDAT                                   (abs)        000F76
_OSCCON1bits                              (abs)        000E43
_OSCCON2bits                              (abs)        000E44
_PIE0bits                                 (abs)        000E29
_PIE3bits                                 (abs)        000E2C
_PIE4bits                                 (abs)        000E2D
_PIE5bits                                 (abs)        000E2E
_PIR0bits                                 (abs)        000E33
_PIR3bits                                 (abs)        000E36
_PIR4bits                                 (abs)        000E37
_PIR5bits                                 (abs)        000E38
_PMD1bits                                 (abs)        000E4D
_PMD2bits                                 (abs)        000E4E
_PMD5bits                                 (abs)        000E51
_PORTAbits                                (abs)        000F89
_PORTBbits                                (abs)        000F8A
_PORTCbits                                (abs)        000F8B
_PORTEbits                                (abs)        000F8D
_PORTHbits                                (abs)        000F90
_PPSLOCK                                  (abs)        000DEF
_PPSLOCKbits                              (abs)        000DEF
_PR2                                      (abs)        000FBC
_PR4                                      (abs)        000FB6
_PR6                                      (abs)        000FB0
_PR8                                      (abs)        000F29
_PacketDataST7540                         text129      007B08
_PacketReadParamST7540                    text126      004EB0
_RC3REG                                   (abs)        000EEA
_RC3STAbits                               (abs)        000EEE
_RC7PPS                                   (abs)        000E69
_RE0PPS                                   (abs)        000E72
_READ_TAG                                 text177      0063A6
_READ_TAG_REVERSE                         text170      006332
_RX3PPS                                   (abs)        000E13
_RXReadyISRHandlerST7540                  text219      007ACA
_ReadConfigST7540                         text46       003E76
_ReceiveNewDataST7540                     text130      007A4C
_SCAN_TAG                                 text179      004CF8
_SCAN_TAG_1                               text172      004C1A
_SP3BRGH                                  (abs)        000EED
_SP3BRGL                                  (abs)        000EEC
_SPIISRHandlerST7540                      text218      006568
_SSP1BUF                                  (abs)        000F91
_SSP1CON1bits                             (abs)        000F95
_SSP1DATPPS                               (abs)        000E1A
_SSP1STATbits                             (abs)        000F94
_Set_Line_High                            text84       007BF0
_Set_Line_Low                             text74       007BEC
_StartTransmitST7540                      text113      007986
_T0CON0bits                               (abs)        000FD5
_T0CON1bits                               (abs)        000FD6
_T1CONbits                                (abs)        000FCF
_T2CLKCONbits                             (abs)        000FBF
_T2CONbits                                (abs)        000FBD
_T4CLKCONbits                             (abs)        000FB9
_T4CONbits                                (abs)        000FB7
_T6CLKCONbits                             (abs)        000FB3
_T6CONbits                                (abs)        000FB1
_T8CLKCONbits                             (abs)        000F2C
_T8CONbits                                (abs)        000F2A
_TAG_Request                              bssCOMRAM    00002D
_TAG_Response                             bssCOMRAM    00004D
_TMR0                                     (abs)        000FD3
_TMR0H                                    (abs)        000FD4
_TMR0L                                    (abs)        000FD3
_TMR1                                     (abs)        000FCD
_TMR1CLKbits                              (abs)        000FD2
_TMR2                                     (abs)        000FBB
_TMR4                                     (abs)        000FB5
_TMR6                                     (abs)        000FAF
_TMR8                                     (abs)        000F28
_TRISAbits                                (abs)        000F81
_TRISBbits                                (abs)        000F82
_TRISCbits                                (abs)        000F83
_TRISDbits                                (abs)        000F84
_TRISEbits                                (abs)        000F85
_TRISFbits                                (abs)        000F86
_TRISGbits                                (abs)        000F87
_TRISHbits                                (abs)        000F88
_TX3REG                                   (abs)        000EEB
_TX3STAbits                               (abs)        000EEF
_TransmitBusyST7540                       text109      007BD8
_Tx_0                                     text81       0078EC
_Tx_1                                     text80       0078D2
_Tx_Calibration_Pulses                    text65       005C9A
_Tx_Word                                  text79       0064FA
_UIO_MAK                                  text187      007A94
_UIO_MAK_1                                text176      007A70
_UIO_SAK                                  text186      007368
_UIO_SAK_1                                text175      007338
_UIO_WRITE                                text185      006B26
_UIO_WRITE_1                              text174      006ACC
_UIO_data_out                             bssCOMRAM    000042
_UIO_noMAK                                text184      007A82
_UIO_noMAK_1                              text173      007A5E
_WDTCON0bits                              (abs)        000E3D
_WPUEbits                                 (abs)        000EAE
_WriteConfigST7540                        text45       005AB6
__CFG_BOREN$SBORDIS                       (abs)        000000
__CFG_BORV$VBOR_190                       (abs)        000000
__CFG_CLKOUTEN$OFF                        (abs)        000000
__CFG_CP$OFF                              (abs)        000000
__CFG_CPD$OFF                             (abs)        000000
__CFG_CSWEN$ON                            (abs)        000000
__CFG_DEBUG$OFF                           (abs)        000000
__CFG_EBTR0$OFF                           (abs)        000000
__CFG_EBTR1$OFF                           (abs)        000000
__CFG_EBTR2$OFF                           (abs)        000000
__CFG_EBTR3$OFF                           (abs)        000000
__CFG_EBTRB$OFF                           (abs)        000000
__CFG_FCMEN$ON                            (abs)        000000
__CFG_FEXTOSC$HS                          (abs)        000000
__CFG_LPBOREN$OFF                         (abs)        000000
__CFG_LVP$ON                              (abs)        000000
__CFG_MCLRE$EXTMCLR                       (abs)        000000
__CFG_PPS1WAY$ON                          (abs)        000000
__CFG_PWRTE$OFF                           (abs)        000000
__CFG_RSTOSC$EXTOSC_4PLL                  (abs)        000000
__CFG_SCANE$ON                            (abs)        000000
__CFG_STVREN$ON                           (abs)        000000
__CFG_WDTCCS$LFINTOSC                     (abs)        000000
__CFG_WDTCPS$WDTCPS_31                    (abs)        000000
__CFG_WDTCWS$WDTCWS_7                     (abs)        000000
__CFG_WDTE$SWDTEN                         (abs)        000000
__CFG_WRT0$OFF                            (abs)        000000
__CFG_WRT1$OFF                            (abs)        000000
__CFG_WRT2$OFF                            (abs)        000000
__CFG_WRT3$OFF                            (abs)        000000
__CFG_WRTB$OFF                            (abs)        000000
__CFG_WRTC$OFF                            (abs)        000000
__CFG_WRTD$OFF                            (abs)        000000
__CFG_XINST$OFF                           (abs)        000000
__CFG_ZCD$OFF                             (abs)        000000
__HRAM                                    (abs)        000000
__Habs1                                   abs1         000000
__Hbank0                                  bank0        000000
__Hbank1                                  bank1        000000
__Hbank10                                 bank10       000000
__Hbank11                                 bank11       000000
__Hbank12                                 bank12       000000
__Hbank13                                 bank13       000000
__Hbank2                                  bank2        000000
__Hbank3                                  bank3        000000
__Hbank4                                  bank4        000000
__Hbank5                                  bank5        000000
__Hbank6                                  bank6        000000
__Hbank7                                  bank7        000000
__Hbank8                                  bank8        000000
__Hbank9                                  bank9        000000
__Hbigbss                                 bigbss       000000
__Hbigdata                                bigdata      000000
__Hbigram                                 bigram       000000
__Hbss                                    bss          000000
__HbssBANK0                               bssBANK0     000000
__HbssBANK1                               bssBANK1     000000
__HbssBANK2                               bssBANK2     000000
__HbssBANK3                               bssBANK3     000000
__HbssBIGRAM                              bssBIGRAM    000000
__HbssCOMRAM                              bssCOMRAM    000000
__Hcinit                                  cinit        000000
__Hclrtext                                clrtext      000000
__Hcomram                                 comram       000000
__Hconfig                                 config       30000C
__Hconst                                  const        000000
__HcstackBANK0                            cstackBANK0  000000
__HcstackBANK1                            cstackBANK1  000000
__HcstackCOMRAM                           cstackCOMRAM 000000
__Hdata                                   data         000000
__HdataBANK0                              dataBANK0    000000
__HdataBANK1                              dataBANK1    000000
__Heeprom_data                            eeprom_data  000000
__Hfarbss                                 farbss       000000
__Hfardata                                fardata      000000
__Hibigdata                               ibigdata     000000
__Hidata                                  idata        000000
__HidataBANK0                             idataBANK0   000000
__HidataBANK1                             idataBANK1   000000
__Hidloc                                  idloc        200010
__Hifardata                               ifardata     000000
__Hinit                                   init         000182
__Hintcode                                intcode      00017E
__Hintcode_body                           intcode_body 000000
__Hintcodelo                              intcodelo    00017E
__Hintentry                               intentry     000000
__Hintret                                 intret       000000
__Hintsave_regs                           intsave_regs 000000
__Hirdata                                 irdata       000000
__Hmediumconst                            mediumconst  000000
__HnvFARRAM                               nvFARRAM     000000
__Hnvbit                                  nvbit        000000
__Hnvrram                                 nvrram       000000
__Hparam                                  rparam       000000
__Hpowerup                                powerup      00017E
__Hram                                    ram          000000
__Hramtop                                 ramtop       000E00
__Hrbit                                   rbit         000000
__Hrbss                                   rbss         000000
__Hrdata                                  rdata        000000
__Hreset_vec                              reset_vec    000004
__Hrparam                                 rparam       000000
__Hsfr                                    sfr          000000
__Hsmallconst                             smallconst   000000
__Hspace_0                                (abs)        30000C
__Hspace_1                                (abs)        000755
__Hspace_2                                (abs)        000000
__Hstack                                  stack        000000
__Hstruct                                 struct       000000
__Htemp                                   temp         000058
__Htext                                   text         000000
__Htext0                                  text0        000000
__Htext1                                  text1        000000
__Htext10                                 text10       000000
__Htext100                                text100      000000
__Htext101                                text101      000000
__Htext102                                text102      000000
__Htext103                                text103      000000
__Htext104                                text104      000000
__Htext105                                text105      000000
__Htext106                                text106      000000
__Htext107                                text107      000000
__Htext108                                text108      000000
__Htext109                                text109      000000
__Htext11                                 text11       000000
__Htext110                                text110      000000
__Htext111                                text111      000000
__Htext112                                text112      000000
__Htext113                                text113      000000
__Htext114                                text114      000000
__Htext115                                text115      000000
__Htext116                                text116      000000
__Htext117                                text117      000000
__Htext118                                text118      000000
__Htext119                                text119      000000
__Htext12                                 text12       000000
__Htext120                                text120      000000
__Htext121                                text121      000000
__Htext122                                text122      000000
__Htext123                                text123      000000
__Htext124                                text124      000000
__Htext125                                text125      000000
__Htext126                                text126      000000
__Htext127                                text127      000000
__Htext128                                text128      000000
__Htext129                                text129      000000
__Htext13                                 text13       000000
__Htext130                                text130      000000
__Htext131                                text131      000000
__Htext132                                text132      000000
__Htext133                                text133      000000
__Htext134                                text134      000000
__Htext135                                text135      000000
__Htext136                                text136      000000
__Htext137                                text137      000000
__Htext138                                text138      000000
__Htext139                                text139      000000
__Htext14                                 text14       000000
__Htext140                                text140      000000
__Htext141                                text141      000000
__Htext142                                text142      000000
__Htext143                                text143      000000
__Htext144                                text144      000000
__Htext145                                text145      000000
__Htext146                                text146      000000
__Htext147                                text147      000000
__Htext148                                text148      000000
__Htext149                                text149      000000
__Htext15                                 text15       000000
__Htext150                                text150      000000
__Htext151                                text151      000000
__Htext152                                text152      000000
__Htext154                                text154      000000
__Htext155                                text155      000000
__Htext156                                text156      000000
__Htext157                                text157      000000
__Htext158                                text158      000000
__Htext159                                text159      000000
__Htext16                                 text16       000000
__Htext160                                text160      000000
__Htext161                                text161      000000
__Htext162                                text162      000000
__Htext163                                text163      000000
__Htext164                                text164      000000
__Htext165                                text165      000000
__Htext166                                text166      000000
__Htext167                                text167      000000
__Htext168                                text168      000000
__Htext169                                text169      000000
__Htext17                                 text17       000000
__Htext170                                text170      000000
__Htext171                                text171      000000
__Htext172                                text172      000000
__Htext173                                text173      000000
__Htext174                                text174      000000
__Htext175                                text175      000000
__Htext176                                text176      000000
__Htext177                                text177      000000
__Htext178                                text178      000000
__Htext179                                text179      000000
__Htext18                                 text18       000000
__Htext180                                text180      000000
__Htext181                                text181      000000
__Htext182                                text182      000000
__Htext183                                text183      000000
__Htext184                                text184      000000
__Htext185                                text185      000000
__Htext186                                text186      000000
__Htext187                                text187      000000
__Htext188                                text188      000000
__Htext189                                text189      000000
__Htext19                                 text19       000000
__Htext190                                text190      000000
__Htext191                                text191      000000
__Htext192                                text192      000000
__Htext193                                text193      000000
__Htext194                                text194      000000
__Htext195                                text195      000000
__Htext196                                text196      000000
__Htext197                                text197      000000
__Htext198                                text198      000000
__Htext199                                text199      000000
__Htext2                                  text2        000000
__Htext20                                 text20       000000
__Htext200                                text200      000000
__Htext201                                text201      000000
__Htext202                                text202      000000
__Htext203                                text203      000000
__Htext204                                text204      000000
__Htext205                                text205      000000
__Htext206                                text206      000000
__Htext207                                text207      000000
__Htext208                                text208      000000
__Htext209                                text209      000000
__Htext21                                 text21       000000
__Htext210                                text210      000000
__Htext211                                text211      000000
__Htext212                                text212      000000
__Htext213                                text213      000000
__Htext214                                text214      000000
__Htext215                                text215      000000
__Htext216                                text216      000000
__Htext217                                text217      000000
__Htext218                                text218      000000
__Htext219                                text219      000000
__Htext22                                 text22       000000
__Htext23                                 text23       000000
__Htext24                                 text24       000000
__Htext25                                 text25       000000
__Htext26                                 text26       000000
__Htext27                                 text27       000000
__Htext28                                 text28       000000
__Htext29                                 text29       000000
__Htext3                                  text3        000000
__Htext30                                 text30       000000
__Htext31                                 text31       000000
__Htext32                                 text32       000000
__Htext33                                 text33       000000
__Htext34                                 text34       000000
__Htext35                                 text35       000000
__Htext36                                 text36       000000
__Htext37                                 text37       000000
__Htext38                                 text38       000000
__Htext39                                 text39       000000
__Htext4                                  text4        000000
__Htext40                                 text40       000000
__Htext41                                 text41       000000
__Htext42                                 text42       000000
__Htext43                                 text43       000000
__Htext44                                 text44       000000
__Htext45                                 text45       000000
__Htext46                                 text46       000000
__Htext47                                 text47       000000
__Htext48                                 text48       000000
__Htext49                                 text49       000000
__Htext5                                  text5        000000
__Htext50                                 text50       000000
__Htext51                                 text51       000000
__Htext52                                 text52       000000
__Htext53                                 text53       000000
__Htext54                                 text54       000000
__Htext55                                 text55       000000
__Htext56                                 text56       000000
__Htext57                                 text57       000000
__Htext58                                 text58       000000
__Htext59                                 text59       000000
__Htext6                                  text6        000000
__Htext60                                 text60       000000
__Htext61                                 text61       000000
__Htext62                                 text62       000000
__Htext63                                 text63       000000
__Htext64                                 text64       000000
__Htext65                                 text65       000000
__Htext66                                 text66       000000
__Htext67                                 text67       000000
__Htext68                                 text68       000000
__Htext69                                 text69       000000
__Htext7                                  text7        000000
__Htext70                                 text70       000000
__Htext71                                 text71       000000
__Htext72                                 text72       000000
__Htext73                                 text73       000000
__Htext74                                 text74       000000
__Htext75                                 text75       000000
__Htext76                                 text76       000000
__Htext77                                 text77       000000
__Htext78                                 text78       000000
__Htext79                                 text79       000000
__Htext8                                  text8        000000
__Htext80                                 text80       000000
__Htext81                                 text81       000000
__Htext82                                 text82       000000
__Htext83                                 text83       000000
__Htext84                                 text84       000000
__Htext85                                 text85       000000
__Htext86                                 text86       000000
__Htext87                                 text87       000000
__Htext88                                 text88       000000
__Htext89                                 text89       000000
__Htext9                                  text9        000000
__Htext90                                 text90       000000
__Htext91                                 text91       000000
__Htext92                                 text92       000000
__Htext93                                 text93       000000
__Htext94                                 text94       000000
__Htext95                                 text95       000000
__Htext96                                 text96       000000
__Htext97                                 text97       000000
__Htext98                                 text98       000000
__Htext99                                 text99       000000
__LRAM                                    (abs)        000001
__Labs1                                   abs1         000000
__Lbank0                                  bank0        000000
__Lbank1                                  bank1        000000
__Lbank10                                 bank10       000000
__Lbank11                                 bank11       000000
__Lbank12                                 bank12       000000
__Lbank13                                 bank13       000000
__Lbank2                                  bank2        000000
__Lbank3                                  bank3        000000
__Lbank4                                  bank4        000000
__Lbank5                                  bank5        000000
__Lbank6                                  bank6        000000
__Lbank7                                  bank7        000000
__Lbank8                                  bank8        000000
__Lbank9                                  bank9        000000
__Lbigbss                                 bigbss       000000
__Lbigdata                                bigdata      000000
__Lbigram                                 bigram       000000
__Lbss                                    bss          000000
__LbssBANK0                               bssBANK0     000000
__LbssBANK1                               bssBANK1     000000
__LbssBANK2                               bssBANK2     000000
__LbssBANK3                               bssBANK3     000000
__LbssBIGRAM                              bssBIGRAM    000000
__LbssCOMRAM                              bssCOMRAM    000000
__Lcinit                                  cinit        000000
__Lclrtext                                clrtext      000000
__Lcomram                                 comram       000000
__Lconfig                                 config       300000
__Lconst                                  const        000000
__LcstackBANK0                            cstackBANK0  000000
__LcstackBANK1                            cstackBANK1  000000
__LcstackCOMRAM                           cstackCOMRAM 000000
__Ldata                                   data         000000
__LdataBANK0                              dataBANK0    000000
__LdataBANK1                              dataBANK1    000000
__Leeprom_data                            eeprom_data  000000
__Lfarbss                                 farbss       000000
__Lfardata                                fardata      000000
__Libigdata                               ibigdata     000000
__Lidata                                  idata        000000
__LidataBANK0                             idataBANK0   000000
__LidataBANK1                             idataBANK1   000000
__Lidloc                                  idloc        200000
__Lifardata                               ifardata     000000
__Linit                                   init         00017E
__Lintcode                                intcode      000008
__Lintcode_body                           intcode_body 000000
__Lintcodelo                              intcodelo    00017E
__Lintentry                               intentry     000000
__Lintret                                 intret       000000
__Lintsave_regs                           intsave_regs 000000
__Lirdata                                 irdata       000000
__Lmediumconst                            mediumconst  000000
__LnvFARRAM                               nvFARRAM     000000
__Lnvbit                                  nvbit        000000
__Lnvrram                                 nvrram       000000
__Lparam                                  rparam       000000
__Lpowerup                                powerup      00017E
__Lram                                    ram          000000
__Lramtop                                 ramtop       000E00
__Lrbit                                   rbit         000000
__Lrbss                                   rbss         000000
__Lrdata                                  rdata        000000
__Lreset_vec                              reset_vec    000000
__Lrparam                                 rparam       000000
__Lsfr                                    sfr          000000
__Lsmallconst                             smallconst   000000
__Lspace_0                                (abs)        000000
__Lspace_1                                (abs)        000000
__Lspace_2                                (abs)        000000
__Lstack                                  stack        000000
__Lstruct                                 struct       000000
__Ltemp                                   temp         000057
__Ltext                                   text         000000
__Ltext0                                  text0        000000
__Ltext1                                  text1        000000
__Ltext10                                 text10       000000
__Ltext100                                text100      000000
__Ltext101                                text101      000000
__Ltext102                                text102      000000
__Ltext103                                text103      000000
__Ltext104                                text104      000000
__Ltext105                                text105      000000
__Ltext106                                text106      000000
__Ltext107                                text107      000000
__Ltext108                                text108      000000
__Ltext109                                text109      000000
__Ltext11                                 text11       000000
__Ltext110                                text110      000000
__Ltext111                                text111      000000
__Ltext112                                text112      000000
__Ltext113                                text113      000000
__Ltext114                                text114      000000
__Ltext115                                text115      000000
__Ltext116                                text116      000000
__Ltext117                                text117      000000
__Ltext118                                text118      000000
__Ltext119                                text119      000000
__Ltext12                                 text12       000000
__Ltext120                                text120      000000
__Ltext121                                text121      000000
__Ltext122                                text122      000000
__Ltext123                                text123      000000
__Ltext124                                text124      000000
__Ltext125                                text125      000000
__Ltext126                                text126      000000
__Ltext127                                text127      000000
__Ltext128                                text128      000000
__Ltext129                                text129      000000
__Ltext13                                 text13       000000
__Ltext130                                text130      000000
__Ltext131                                text131      000000
__Ltext132                                text132      000000
__Ltext133                                text133      000000
__Ltext134                                text134      000000
__Ltext135                                text135      000000
__Ltext136                                text136      000000
__Ltext137                                text137      000000
__Ltext138                                text138      000000
__Ltext139                                text139      000000
__Ltext14                                 text14       000000
__Ltext140                                text140      000000
__Ltext141                                text141      000000
__Ltext142                                text142      000000
__Ltext143                                text143      000000
__Ltext144                                text144      000000
__Ltext145                                text145      000000
__Ltext146                                text146      000000
__Ltext147                                text147      000000
__Ltext148                                text148      000000
__Ltext149                                text149      000000
__Ltext15                                 text15       000000
__Ltext150                                text150      000000
__Ltext151                                text151      000000
__Ltext152                                text152      000000
__Ltext154                                text154      000000
__Ltext155                                text155      000000
__Ltext156                                text156      000000
__Ltext157                                text157      000000
__Ltext158                                text158      000000
__Ltext159                                text159      000000
__Ltext16                                 text16       000000
__Ltext160                                text160      000000
__Ltext161                                text161      000000
__Ltext162                                text162      000000
__Ltext163                                text163      000000
__Ltext164                                text164      000000
__Ltext165                                text165      000000
__Ltext166                                text166      000000
__Ltext167                                text167      000000
__Ltext168                                text168      000000
__Ltext169                                text169      000000
__Ltext17                                 text17       000000
__Ltext170                                text170      000000
__Ltext171                                text171      000000
__Ltext172                                text172      000000
__Ltext173                                text173      000000
__Ltext174                                text174      000000
__Ltext175                                text175      000000
__Ltext176                                text176      000000
__Ltext177                                text177      000000
__Ltext178                                text178      000000
__Ltext179                                text179      000000
__Ltext18                                 text18       000000
__Ltext180                                text180      000000
__Ltext181                                text181      000000
__Ltext182                                text182      000000
__Ltext183                                text183      000000
__Ltext184                                text184      000000
__Ltext185                                text185      000000
__Ltext186                                text186      000000
__Ltext187                                text187      000000
__Ltext188                                text188      000000
__Ltext189                                text189      000000
__Ltext19                                 text19       000000
__Ltext190                                text190      000000
__Ltext191                                text191      000000
__Ltext192                                text192      000000
__Ltext193                                text193      000000
__Ltext194                                text194      000000
__Ltext195                                text195      000000
__Ltext196                                text196      000000
__Ltext197                                text197      000000
__Ltext198                                text198      000000
__Ltext199                                text199      000000
__Ltext2                                  text2        000000
__Ltext20                                 text20       000000
__Ltext200                                text200      000000
__Ltext201                                text201      000000
__Ltext202                                text202      000000
__Ltext203                                text203      000000
__Ltext204                                text204      000000
__Ltext205                                text205      000000
__Ltext206                                text206      000000
__Ltext207                                text207      000000
__Ltext208                                text208      000000
__Ltext209                                text209      000000
__Ltext21                                 text21       000000
__Ltext210                                text210      000000
__Ltext211                                text211      000000
__Ltext212                                text212      000000
__Ltext213                                text213      000000
__Ltext214                                text214      000000
__Ltext215                                text215      000000
__Ltext216                                text216      000000
__Ltext217                                text217      000000
__Ltext218                                text218      000000
__Ltext219                                text219      000000
__Ltext22                                 text22       000000
__Ltext23                                 text23       000000
__Ltext24                                 text24       000000
__Ltext25                                 text25       000000
__Ltext26                                 text26       000000
__Ltext27                                 text27       000000
__Ltext28                                 text28       000000
__Ltext29                                 text29       000000
__Ltext3                                  text3        000000
__Ltext30                                 text30       000000
__Ltext31                                 text31       000000
__Ltext32                                 text32       000000
__Ltext33                                 text33       000000
__Ltext34                                 text34       000000
__Ltext35                                 text35       000000
__Ltext36                                 text36       000000
__Ltext37                                 text37       000000
__Ltext38                                 text38       000000
__Ltext39                                 text39       000000
__Ltext4                                  text4        000000
__Ltext40                                 text40       000000
__Ltext41                                 text41       000000
__Ltext42                                 text42       000000
__Ltext43                                 text43       000000
__Ltext44                                 text44       000000
__Ltext45                                 text45       000000
__Ltext46                                 text46       000000
__Ltext47                                 text47       000000
__Ltext48                                 text48       000000
__Ltext49                                 text49       000000
__Ltext5                                  text5        000000
__Ltext50                                 text50       000000
__Ltext51                                 text51       000000
__Ltext52                                 text52       000000
__Ltext53                                 text53       000000
__Ltext54                                 text54       000000
__Ltext55                                 text55       000000
__Ltext56                                 text56       000000
__Ltext57                                 text57       000000
__Ltext58                                 text58       000000
__Ltext59                                 text59       000000
__Ltext6                                  text6        000000
__Ltext60                                 text60       000000
__Ltext61                                 text61       000000
__Ltext62                                 text62       000000
__Ltext63                                 text63       000000
__Ltext64                                 text64       000000
__Ltext65                                 text65       000000
__Ltext66                                 text66       000000
__Ltext67                                 text67       000000
__Ltext68                                 text68       000000
__Ltext69                                 text69       000000
__Ltext7                                  text7        000000
__Ltext70                                 text70       000000
__Ltext71                                 text71       000000
__Ltext72                                 text72       000000
__Ltext73                                 text73       000000
__Ltext74                                 text74       000000
__Ltext75                                 text75       000000
__Ltext76                                 text76       000000
__Ltext77                                 text77       000000
__Ltext78                                 text78       000000
__Ltext79                                 text79       000000
__Ltext8                                  text8        000000
__Ltext80                                 text80       000000
__Ltext81                                 text81       000000
__Ltext82                                 text82       000000
__Ltext83                                 text83       000000
__Ltext84                                 text84       000000
__Ltext85                                 text85       000000
__Ltext86                                 text86       000000
__Ltext87                                 text87       000000
__Ltext88                                 text88       000000
__Ltext89                                 text89       000000
__Ltext9                                  text9        000000
__Ltext90                                 text90       000000
__Ltext91                                 text91       000000
__Ltext92                                 text92       000000
__Ltext93                                 text93       000000
__Ltext94                                 text94       000000
__Ltext95                                 text95       000000
__Ltext96                                 text96       000000
__Ltext97                                 text97       000000
__Ltext98                                 text98       000000
__Ltext99                                 text99       000000
__S0                                      (abs)        30000C
__S1                                      (abs)        000755
__S2                                      (abs)        000000
___inthi_sp                               stack        000000
___intlo_sp                               stack        000000
___lldiv                                  text105      0055CE
___lldiv@counter                          cstackBANK0  00006C
___lldiv@dividend                         cstackBANK0  000060
___lldiv@divisor                          cstackBANK0  000064
___lldiv@quotient                         cstackBANK0  000068
___lwdiv                                  text143      006246
___lwdiv@counter                          cstackBANK0  000064
___lwdiv@dividend                         cstackBANK0  000060
___lwdiv@divisor                          cstackBANK0  000062
___lwdiv@quotient                         cstackBANK0  000065
___param_bank                             (abs)        000000
___rparam_used                            (abs)        000001
___sp                                     stack        000000
___wmul                                   text147      007166
___wmul@multiplicand                      cstackBANK0  000062
___wmul@multiplier                        cstackBANK0  000060
___wmul@product                           cstackBANK0  000064
__accesstop                               (abs)        000060
__activetblptr                            (abs)        000002
__delay_ms                                text73       006E04
__delay_ms@delay                          cstackBANK0  000061
__delay_ms@i                              cstackBANK0  000063
__delay_us                                text145      00766E
__delay_us@us                             cstackBANK0  000060
__end_of_CHECK_CRC16                      text188      00712E
__end_of_CRC16                            text128      003D44
__end_of_CheckCRCST7540                   text127      0057FA
__end_of_DataReadyST7540                  text122      007BE4
__end_of_Delay_100us                      text86       007B08
__end_of_Delay_500us                      text83       007B52
__end_of_Delay_500us_X                    text82       007B46
__end_of_Delay_ms                         text85       006956
__end_of_EDD_Blast                        text78       0066A6
__end_of_EDD_Calibrate                    text64       00723A
__end_of_EDD_Energy_Store                 text77       006F5C
__end_of_EDD_Init_Comms                   text75       007A12
__end_of_InitST7540                       text43       0044DE
__end_of_InitST7540Pins                   text47       0075AC
__end_of_LineIdleST7540                   text110      007B5E
__end_of_PacketDataST7540                 text129      007B16
__end_of_PacketReadParamST7540            text126      004F88
__end_of_READ_TAG                         text177      00641A
__end_of_READ_TAG_REVERSE                 text170      0063A6
__end_of_RXReadyISRHandlerST7540          text219      007ADC
__end_of_ReadConfigST7540                 text46       003FA6
__end_of_ReceiveNewDataST7540             text130      007A5E
__end_of_SCAN_TAG                         text179      004DD6
__end_of_SCAN_TAG_1                       text172      004CF8
__end_of_SPIISRHandlerST7540              text218      0065D6
__end_of_Set_Line_High                    text84       007BF4
__end_of_Set_Line_Low                     text74       007BF0
__end_of_StartTransmitST7540              text113      00799E
__end_of_TransmitBusyST7540               text109      007BDE
__end_of_Tx_0                             text81       007906
__end_of_Tx_1                             text80       0078EC
__end_of_Tx_Calibration_Pulses            text65       005D30
__end_of_Tx_Word                          text79       006568
__end_of_UIO_MAK                          text187      007AA6
__end_of_UIO_MAK_1                        text176      007A82
__end_of_UIO_SAK                          text186      007398
__end_of_UIO_SAK_1                        text175      007368
__end_of_UIO_WRITE                        text185      006B80
__end_of_UIO_WRITE_1                      text174      006B26
__end_of_UIO_noMAK                        text184      007A94
__end_of_UIO_noMAK_1                      text173      007A70
__end_of_WriteConfigST7540                text45       005B5A
__end_of___lldiv                          text105      00568A
__end_of___lwdiv                          text143      0062BE
__end_of___wmul                           text147      00719C
__end_of__delay_ms                        text73       006E4C
__end_of__delay_us                        text145      007692
__end_of__initialization                  cinit        005C8C
__end_of_acOr36VISR                       text198      007812
__end_of_activateBluetooth                text150      0071D2
__end_of_addDataToOutgoingQueue           text146      002F00
__end_of_addNewTag                        text166      00353C
__end_of_addPacketToIncomingQueue         text125      0030B4
__end_of_addPacketToOutgoingQueue         text149      0058AA
__end_of_bluetooth                        text132      0036AC
__end_of_bluetoothCRC                     text137      0033CA
__end_of_bluetoothSetupSwitch             text139      0070F6
__end_of_bluetoothStateHandler            text131      0046BA
__end_of_buildMessageST7540               text112      001A56
__end_of_calcrc                           text189      0064FA
__end_of_checkBluetoothCRC                text136      0040C2
__end_of_checkCounter                     text195      005EF0
__end_of_checkForExistingUID              text135      005AB6
__end_of_checkForUnfiredEdds              text66       002720
__end_of_checkIfTagIsRemoved              text115      007B6A
__end_of_checkLineForConnectedUIDs        text67       006770
__end_of_checkOutgoingMessages            text197      007BCC
__end_of_checkPulse                       text215      006E94
__end_of_checkStatusBits                  text148      006ACC
__end_of_clearEDDStatusbits               text37       001D18
__end_of_commandResponse                  text68       0051F8
__end_of_currentStateHandler              text88       003258
__end_of_detectFallingEdge                text182      007712
__end_of_detectFallingEdgeEDD             text71       0068F6
__end_of_detectRisingEdge                 text181      0076F2
__end_of_detectRisingEdgeEDD              text70       006CD0
__end_of_device                           text28       002B42
__end_of_deviceStateHandler               text27       001FD8
__end_of_disengageRelay                   text87       007BF8
__end_of_eddCommsIsr4                     text155      007A3A
__end_of_eddCommsIsr8                     text159      005DC6
__end_of_fire                             text57       004C1A
__end_of_fireUIDs                         text61       003818
__end_of_handleIncomingQueuePacket        text124      0041D6
__end_of_incomingCommands                 text123      0069B6
__end_of_incomingCommandsStateHandler     text121      006836
__end_of_initST7540Interrupts             text44       007986
__end_of_initST7540PPS                    text48       0077BE
__end_of_initialise                       text2        006BD6
__end_of_initialise12V                    text26       007B8A
__end_of_initialise24V                    text25       007B80
__end_of_initialiseACinterrupt            text4        007B2E
__end_of_initialiseBluetooth              text23       007BD2
__end_of_initialiseBluetoothPins          text24       007648
__end_of_initialiseDetMemory              text19       0052C2
__end_of_initialiseDetWindows             text22       005510
__end_of_initialiseEDDPins                text18       007AEC
__end_of_initialiseEddADC                 text76       0075D4
__end_of_initialiseLed                    text17       007622
__end_of_initialiseModem                  text41       006A70
__end_of_initialisePic                    text16       00755A
__end_of_initialiseQueues                 text42       0078B8
__end_of_initialiseReadKeyCable           text15       007530
__end_of_initialiseReadSupply             text14       0076D2
__end_of_initialiseShaftTest              text13       0070BE
__end_of_initialiseState                  text152      006A14
__end_of_initialiseStates                 text60       00538A
__end_of_initialiseTag                    text12       0076B2
__end_of_initialiseTagADC                 text178      0072D6
__end_of_initialiseTagADC_1               text171      0072A2
__end_of_initialiseTimer0                 text11       007338
__end_of_initialiseTimer1                 text10       00776A
__end_of_initialiseTimer2                 text9        007086
__end_of_initialiseTimer4                 text8        007308
__end_of_initialiseTimer6                 text7        00704E
__end_of_initialiseTimer8                 text6        007016
__end_of_initialiseUART                   text151      0074DA
__end_of_initialiseWatchDogTimer          text5        007A26
__end_of_intialiseAcOr36V                 text3        007B22
__end_of_isr                              intcode      00017E
__end_of_led                              text116      003ACA
__end_of_ledStateHandler                  text114      002D42
__end_of_main                             text0        006896
__end_of_mainsSleep                       text51       006C7E
__end_of_mainsWake                        text38       006F1A
__end_of_modemSleep                       text56       007AFA
__end_of_msIsr                            text193      004EB0
__end_of_outgoingMessages                 text111      0067D4
__end_of_outgoingMessagesStateHandler     text108      006246
__end_of_power                            text138      006332
__end_of_ppsLock                          text50       0077F6
__end_of_ppsUnlock                        text49       0077DA
__end_of_prepareForProgramming            text59       006DBA
__end_of_processBTPacket                  text134      001434
__end_of_program                          text32       007786
__end_of_programInitialise                text36       007B3A
__end_of_programRetryChecks               text62       00663E
__end_of_programUID                       text63       00228E
__end_of_programUIDs                      text33       001770
__end_of_readBatteryADC                   text97       00496C
__end_of_readBatteryADCSetup              text98       007422
__end_of_readByteFromEeprom               text21       006D70
__end_of_readCableADC                     text92       004886
__end_of_readCableADCSetup                text93       0073F4
__end_of_readEDDADC                       text103      004B38
__end_of_readEDDADCSetup                  text106      00747E
__end_of_readEUSART                       text190      007730
__end_of_readEarthADC                     text90       0047A0
__end_of_readEarthADCSetup                text91       0073C6
__end_of_readEddADC                       text72       007584
__end_of_readKeyCable                     text107      005BFC
__end_of_readKeyCableStateHandler         text100      005A08
__end_of_readMainsInterval                text96       00726E
__end_of_readS1StateADC                   text101      004A52
__end_of_readS1StateADCSetup              text102      007450
__end_of_readStructureFromEeprom          text20       006D20
__end_of_readSupply                       text99       00512C
__end_of_readSupplyStateHandler           text95       0045D0
__end_of_readTagADC                       text183      0079CE
__end_of_readTagRoutine                   text162      0061BE
__end_of_readUID                          text35       0024EC
__end_of_receiveBluetooth                 text192      00544E
__end_of_receiveBluetoothSetup            text191      006FDA
__end_of_reset13msTimer                   text217      007ACA
__end_of_reset4SecTimer                   text40       007A4C
__end_of_resetBluetooth                   text144      007920
__end_of_returnFromProgramming            text58       007206
__end_of_rxWord                           text180      006014
__end_of_rxWordEDD                        text69       003C10
__end_of_sec4OverflowIsr                  text161      0079B6
__end_of_selfCheckUID                     text34       0010BE
__end_of_sendPacket                       text133      003978
__end_of_setBlueLed                       text120      007BB4
__end_of_setDeviceName                    text141      003E76
__end_of_setGreenLed                      text119      007BAC
__end_of_setOffLed                        text118      007BA4
__end_of_setRedLed                        text117      007B9C
__end_of_setSlaveMode                     text140      0074AC
__end_of_shaftTest                        text94       00505A
__end_of_shaftTestStateHandler            text89       005744
__end_of_sleep                            text29       0043E8
__end_of_sleep12V                         text55       007BEC
__end_of_sleepBluetooth                   text54       007BD8
__end_of_stateCounterHandler              text194      006134
__end_of_tagFor0                          text165      007954
__end_of_tagFor1                          text164      00793A
__end_of_tagForInterrupt                  text39       0077A2
__end_of_tagSleep                         text53       0078D2
__end_of_testMemory                       text1        000CDA
__end_of_turnOffCableTest                 text52       007BE8
__end_of_updateStateIds                   text196      007506
__end_of_us100DelayIsr                    text160      007BBC
__end_of_us100Isr                         text158      007B94
__end_of_us500Isr                         text154      007B76
__end_of_variance                         text104      00293E
__end_of_wake                             text199      006F9C
__end_of_writeByteToEeprom                text31       00648A
__end_of_writeEUSART                      text142      00670C
__end_of_writeStructureToEeprom           text30       006ED8
__end_ofi2_InitST7540                     text205      0055CE
__end_ofi2_InitST7540Pins                 text211      0075FC
__end_ofi2_ReadConfigST7540               text210      0042E2
__end_ofi2_Set_Line_High                  text157      007C00
__end_ofi2_Set_Line_Low                   text156      007BFC
__end_ofi2_WriteConfigST7540              text207      0060A6
__end_ofi2___wmul                         text168      00766E
__end_ofi2__delay_ms                      text208      007166
__end_ofi2__delay_us                      text209      00774E
__end_ofi2_addPacketToOutgoingQueue       text169      00595A
__end_ofi2_checkForExistingUID            text167      005F82
__end_ofi2_initST7540Interrupts           text206      0079E6
__end_ofi2_initST7540PPS                  text212      00784A
__end_ofi2_initialiseModem                text202      006E04
__end_ofi2_initialiseQueues               text204      00796E
__end_ofi2_initialiseState                text203      006C2C
__end_ofi2_initialiseStates               text201      005E5C
__end_ofi2_ppsLock                        text214      007882
__end_ofi2_ppsUnlock                      text213      007866
__end_ofi2_reset4SecTimer                 text216      007AB8
__end_ofi2_setBlueLed                     text163      007BC4
__end_ofi2_tagForInterrupt                text200      00782E
__initialization                          cinit        005BFC
__mediumconst                             mediumconst  000000
__pbssBANK0                               bssBANK0     0000A3
__pbssBANK1                               bssBANK1     000100
__pbssBANK2                               bssBANK2     000200
__pbssBANK3                               bssBANK3     000300
__pbssBIGRAM                              bssBIGRAM    0003C0
__pbssCOMRAM                              bssCOMRAM    00002D
__pcinit                                  cinit        005BFC
__pcstackBANK0                            cstackBANK0  000060
__pcstackBANK1                            cstackBANK1  0001FA
__pcstackCOMRAM                           cstackCOMRAM 000001
__pdataBANK0                              dataBANK0    0000E4
__pdataBANK1                              dataBANK1    0001E4
__pidataBANK0                             idataBANK0   007882
__pidataBANK1                             idataBANK1   0079E6
__pintcode                                intcode      000008
__ptext0                                  text0        006836
__ptext1                                  text1        000182
__ptext10                                 text10       00774E
__ptext100                                text100      00595A
__ptext101                                text101      00496C
__ptext102                                text102      007422
__ptext103                                text103      004A52
__ptext104                                text104      002720
__ptext105                                text105      0055CE
__ptext106                                text106      007450
__ptext107                                text107      005B5A
__ptext108                                text108      0061BE
__ptext109                                text109      007BD8
__ptext11                                 text11       007308
__ptext110                                text110      007B52
__ptext111                                text111      006770
__ptext112                                text112      001770
__ptext113                                text113      007986
__ptext114                                text114      002B42
__ptext115                                text115      007B5E
__ptext116                                text116      003978
__ptext117                                text117      007B94
__ptext118                                text118      007B9C
__ptext119                                text119      007BA4
__ptext12                                 text12       007692
__ptext120                                text120      007BAC
__ptext121                                text121      0067D4
__ptext122                                text122      007BDE
__ptext123                                text123      006956
__ptext124                                text124      0040C2
__ptext125                                text125      002F00
__ptext126                                text126      004EB0
__ptext127                                text127      005744
__ptext128                                text128      003C10
__ptext129                                text129      007B08
__ptext13                                 text13       007086
__ptext130                                text130      007A4C
__ptext131                                text131      0045D0
__ptext132                                text132      00353C
__ptext133                                text133      003818
__ptext134                                text134      0010BE
__ptext135                                text135      005A08
__ptext136                                text136      003FA6
__ptext137                                text137      003258
__ptext138                                text138      0062BE
__ptext139                                text139      0070BE
__ptext14                                 text14       0076B2
__ptext140                                text140      00747E
__ptext141                                text141      003D44
__ptext142                                text142      0066A6
__ptext143                                text143      006246
__ptext144                                text144      007906
__ptext145                                text145      00766E
__ptext146                                text146      002D42
__ptext147                                text147      007166
__ptext148                                text148      006A70
__ptext149                                text149      0057FA
__ptext15                                 text15       007506
__ptext150                                text150      00719C
__ptext151                                text151      0074AC
__ptext152                                text152      0069B6
__ptext154                                text154      007B6A
__ptext155                                text155      007A26
__ptext156                                text156      007BF8
__ptext157                                text157      007BFC
__ptext158                                text158      007B8A
__ptext159                                text159      005D30
__ptext16                                 text16       007530
__ptext160                                text160      007BB4
__ptext161                                text161      00799E
__ptext162                                text162      006134
__ptext163                                text163      007BBC
__ptext164                                text164      007920
__ptext165                                text165      00793A
__ptext166                                text166      0033CA
__ptext167                                text167      005EF0
__ptext168                                text168      007648
__ptext169                                text169      0058AA
__ptext17                                 text17       0075FC
__ptext170                                text170      006332
__ptext171                                text171      00726E
__ptext172                                text172      004C1A
__ptext173                                text173      007A5E
__ptext174                                text174      006ACC
__ptext175                                text175      007338
__ptext176                                text176      007A70
__ptext177                                text177      0063A6
__ptext178                                text178      0072A2
__ptext179                                text179      004CF8
__ptext18                                 text18       007ADC
__ptext180                                text180      005F82
__ptext181                                text181      0076D2
__ptext182                                text182      0076F2
__ptext183                                text183      0079B6
__ptext184                                text184      007A82
__ptext185                                text185      006B26
__ptext186                                text186      007368
__ptext187                                text187      007A94
__ptext188                                text188      0070F6
__ptext189                                text189      00648A
__ptext19                                 text19       0051F8
__ptext190                                text190      007712
__ptext191                                text191      006F9C
__ptext192                                text192      00538A
__ptext193                                text193      004DD6
__ptext194                                text194      0060A6
__ptext195                                text195      005E5C
__ptext196                                text196      0074DA
__ptext197                                text197      007BC4
__ptext198                                text198      0077F6
__ptext199                                text199      006F5C
__ptext2                                  text2        006B80
__ptext20                                 text20       006CD0
__ptext200                                text200      007812
__ptext201                                text201      005DC6
__ptext202                                text202      006DBA
__ptext203                                text203      006BD6
__ptext204                                text204      007954
__ptext205                                text205      005510
__ptext206                                text206      0079CE
__ptext207                                text207      006014
__ptext208                                text208      00712E
__ptext209                                text209      007730
__ptext21                                 text21       006D20
__ptext210                                text210      0041D6
__ptext211                                text211      0075D4
__ptext212                                text212      00782E
__ptext213                                text213      00784A
__ptext214                                text214      007866
__ptext215                                text215      006E4C
__ptext216                                text216      007AA6
__ptext217                                text217      007AB8
__ptext218                                text218      006568
__ptext219                                text219      007ACA
__ptext22                                 text22       00544E
__ptext23                                 text23       007BCC
__ptext24                                 text24       007622
__ptext25                                 text25       007B76
__ptext26                                 text26       007B80
__ptext27                                 text27       001D18
__ptext28                                 text28       00293E
__ptext29                                 text29       0042E2
__ptext3                                  text3        007B16
__ptext30                                 text30       006E94
__ptext31                                 text31       00641A
__ptext32                                 text32       00776A
__ptext33                                 text33       001434
__ptext34                                 text34       000CDA
__ptext35                                 text35       00228E
__ptext36                                 text36       007B2E
__ptext37                                 text37       001A56
__ptext38                                 text38       006ED8
__ptext39                                 text39       007786
__ptext4                                  text4        007B22
__ptext40                                 text40       007A3A
__ptext41                                 text41       006A14
__ptext42                                 text42       00789E
__ptext43                                 text43       0043E8
__ptext44                                 text44       00796E
__ptext45                                 text45       005AB6
__ptext46                                 text46       003E76
__ptext47                                 text47       007584
__ptext48                                 text48       0077A2
__ptext49                                 text49       0077BE
__ptext5                                  text5        007A12
__ptext50                                 text50       0077DA
__ptext51                                 text51       006C2C
__ptext52                                 text52       007BE4
__ptext53                                 text53       0078B8
__ptext54                                 text54       007BD2
__ptext55                                 text55       007BE8
__ptext56                                 text56       007AEC
__ptext57                                 text57       004B38
__ptext58                                 text58       0071D2
__ptext59                                 text59       006D70
__ptext6                                  text6        006FDA
__ptext60                                 text60       0052C2
__ptext61                                 text61       0036AC
__ptext62                                 text62       0065D6
__ptext63                                 text63       001FD8
__ptext64                                 text64       007206
__ptext65                                 text65       005C9A
__ptext66                                 text66       0024EC
__ptext67                                 text67       00670C
__ptext68                                 text68       00512C
__ptext69                                 text69       003ACA
__ptext7                                  text7        007016
__ptext70                                 text70       006C7E
__ptext71                                 text71       006896
__ptext72                                 text72       00755A
__ptext73                                 text73       006E04
__ptext74                                 text74       007BEC
__ptext75                                 text75       0079FC
__ptext76                                 text76       0075AC
__ptext77                                 text77       006F1A
__ptext78                                 text78       00663E
__ptext79                                 text79       0064FA
__ptext8                                  text8        0072D6
__ptext80                                 text80       0078D2
__ptext81                                 text81       0078EC
__ptext82                                 text82       007B3A
__ptext83                                 text83       007B46
__ptext84                                 text84       007BF0
__ptext85                                 text85       0068F6
__ptext86                                 text86       007AFA
__ptext87                                 text87       007BF4
__ptext88                                 text88       0030B4
__ptext89                                 text89       00568A
__ptext9                                  text9        00704E
__ptext90                                 text90       0046BA
__ptext91                                 text91       007398
__ptext92                                 text92       0047A0
__ptext93                                 text93       0073C6
__ptext94                                 text94       004F88
__ptext95                                 text95       0044DE
__ptext96                                 text96       00723A
__ptext97                                 text97       004886
__ptext98                                 text98       0073F4
__ptext99                                 text99       00505A
__ramtop                                  ramtop       000E00
__size_of_CHECK_CRC16                     (abs)        000000
__size_of_CRC16                           (abs)        000000
__size_of_CheckCRCST7540                  (abs)        000000
__size_of_DataReadyST7540                 (abs)        000000
__size_of_Delay_100us                     (abs)        000000
__size_of_Delay_500us                     (abs)        000000
__size_of_Delay_500us_X                   (abs)        000000
__size_of_Delay_ms                        (abs)        000000
__size_of_EDD_Blast                       (abs)        000000
__size_of_EDD_Calibrate                   (abs)        000000
__size_of_EDD_Energy_Store                (abs)        000000
__size_of_EDD_Init_Comms                  (abs)        000000
__size_of_InitST7540                      (abs)        000000
__size_of_InitST7540Pins                  (abs)        000000
__size_of_LineIdleST7540                  (abs)        000000
__size_of_PacketDataST7540                (abs)        000000
__size_of_PacketReadParamST7540           (abs)        000000
__size_of_READ_TAG                        (abs)        000000
__size_of_READ_TAG_REVERSE                (abs)        000000
__size_of_RXReadyISRHandlerST7540         (abs)        000000
__size_of_ReadConfigST7540                (abs)        000000
__size_of_ReceiveNewDataST7540            (abs)        000000
__size_of_SCAN_TAG                        (abs)        000000
__size_of_SCAN_TAG_1                      (abs)        000000
__size_of_SPIISRHandlerST7540             (abs)        000000
__size_of_Set_Line_High                   (abs)        000000
__size_of_Set_Line_Low                    (abs)        000000
__size_of_StartTransmitST7540             (abs)        000000
__size_of_TransmitBusyST7540              (abs)        000000
__size_of_Tx_0                            (abs)        000000
__size_of_Tx_1                            (abs)        000000
__size_of_Tx_Calibration_Pulses           (abs)        000000
__size_of_Tx_Word                         (abs)        000000
__size_of_UIO_MAK                         (abs)        000000
__size_of_UIO_MAK_1                       (abs)        000000
__size_of_UIO_SAK                         (abs)        000000
__size_of_UIO_SAK_1                       (abs)        000000
__size_of_UIO_WRITE                       (abs)        000000
__size_of_UIO_WRITE_1                     (abs)        000000
__size_of_UIO_noMAK                       (abs)        000000
__size_of_UIO_noMAK_1                     (abs)        000000
__size_of_WriteConfigST7540               (abs)        000000
__size_of___lldiv                         (abs)        000000
__size_of___lwdiv                         (abs)        000000
__size_of___wmul                          (abs)        000000
__size_of__delay_ms                       (abs)        000000
__size_of__delay_us                       (abs)        000000
__size_of_acOr36VISR                      (abs)        000000
__size_of_activateBluetooth               (abs)        000000
__size_of_addDataToOutgoingQueue          (abs)        000000
__size_of_addNewTag                       (abs)        000000
__size_of_addPacketToIncomingQueue        (abs)        000000
__size_of_addPacketToOutgoingQueue        (abs)        000000
__size_of_bluetooth                       (abs)        000000
__size_of_bluetoothCRC                    (abs)        000000
__size_of_bluetoothSetupSwitch            (abs)        000000
__size_of_bluetoothStateHandler           (abs)        000000
__size_of_buildMessageST7540              (abs)        000000
__size_of_calcrc                          (abs)        000000
__size_of_checkBluetoothCRC               (abs)        000000
__size_of_checkCounter                    (abs)        000000
__size_of_checkForExistingUID             (abs)        000000
__size_of_checkForUnfiredEdds             (abs)        000000
__size_of_checkIfTagIsRemoved             (abs)        000000
__size_of_checkLineForConnectedUIDs       (abs)        000000
__size_of_checkOutgoingMessages           (abs)        000000
__size_of_checkPulse                      (abs)        000000
__size_of_checkStatusBits                 (abs)        000000
__size_of_clearEDDStatusbits              (abs)        000000
__size_of_commandResponse                 (abs)        000000
__size_of_currentStateHandler             (abs)        000000
__size_of_detectFallingEdge               (abs)        000000
__size_of_detectFallingEdgeEDD            (abs)        000000
__size_of_detectRisingEdge                (abs)        000000
__size_of_detectRisingEdgeEDD             (abs)        000000
__size_of_device                          (abs)        000000
__size_of_deviceStateHandler              (abs)        000000
__size_of_disengageRelay                  (abs)        000000
__size_of_eddCommsIsr4                    (abs)        000000
__size_of_eddCommsIsr8                    (abs)        000000
__size_of_fire                            (abs)        000000
__size_of_fireUIDs                        (abs)        000000
__size_of_handleIncomingQueuePacket       (abs)        000000
__size_of_incomingCommands                (abs)        000000
__size_of_incomingCommandsStateHandler    (abs)        000000
__size_of_initST7540Interrupts            (abs)        000000
__size_of_initST7540PPS                   (abs)        000000
__size_of_initialise                      (abs)        000000
__size_of_initialise12V                   (abs)        000000
__size_of_initialise24V                   (abs)        000000
__size_of_initialiseACinterrupt           (abs)        000000
__size_of_initialiseBluetooth             (abs)        000000
__size_of_initialiseBluetoothPins         (abs)        000000
__size_of_initialiseDetMemory             (abs)        000000
__size_of_initialiseDetWindows            (abs)        000000
__size_of_initialiseEDDPins               (abs)        000000
__size_of_initialiseEddADC                (abs)        000000
__size_of_initialiseLed                   (abs)        000000
__size_of_initialiseModem                 (abs)        000000
__size_of_initialisePic                   (abs)        000000
__size_of_initialiseQueues                (abs)        000000
__size_of_initialiseReadKeyCable          (abs)        000000
__size_of_initialiseReadSupply            (abs)        000000
__size_of_initialiseShaftTest             (abs)        000000
__size_of_initialiseState                 (abs)        000000
__size_of_initialiseStates                (abs)        000000
__size_of_initialiseTag                   (abs)        000000
__size_of_initialiseTagADC                (abs)        000000
__size_of_initialiseTagADC_1              (abs)        000000
__size_of_initialiseTimer0                (abs)        000000
__size_of_initialiseTimer1                (abs)        000000
__size_of_initialiseTimer2                (abs)        000000
__size_of_initialiseTimer4                (abs)        000000
__size_of_initialiseTimer6                (abs)        000000
__size_of_initialiseTimer8                (abs)        000000
__size_of_initialiseUART                  (abs)        000000
__size_of_initialiseWatchDogTimer         (abs)        000000
__size_of_intialiseAcOr36V                (abs)        000000
__size_of_isr                             (abs)        000000
__size_of_led                             (abs)        000000
__size_of_ledStateHandler                 (abs)        000000
__size_of_main                            (abs)        000000
__size_of_mainsSleep                      (abs)        000000
__size_of_mainsWake                       (abs)        000000
__size_of_modemSleep                      (abs)        000000
__size_of_msIsr                           (abs)        000000
__size_of_outgoingMessages                (abs)        000000
__size_of_outgoingMessagesStateHandler    (abs)        000000
__size_of_power                           (abs)        000000
__size_of_ppsLock                         (abs)        000000
__size_of_ppsUnlock                       (abs)        000000
__size_of_prepareForProgramming           (abs)        000000
__size_of_processBTPacket                 (abs)        000000
__size_of_program                         (abs)        000000
__size_of_programInitialise               (abs)        000000
__size_of_programRetryChecks              (abs)        000000
__size_of_programUID                      (abs)        000000
__size_of_programUIDs                     (abs)        000000
__size_of_readBatteryADC                  (abs)        000000
__size_of_readBatteryADCSetup             (abs)        000000
__size_of_readByteFromEeprom              (abs)        000000
__size_of_readCableADC                    (abs)        000000
__size_of_readCableADCSetup               (abs)        000000
__size_of_readEDDADC                      (abs)        000000
__size_of_readEDDADCSetup                 (abs)        000000
__size_of_readEUSART                      (abs)        000000
__size_of_readEarthADC                    (abs)        000000
__size_of_readEarthADCSetup               (abs)        000000
__size_of_readEddADC                      (abs)        000000
__size_of_readKeyCable                    (abs)        000000
__size_of_readKeyCableStateHandler        (abs)        000000
__size_of_readMainsInterval               (abs)        000000
__size_of_readS1StateADC                  (abs)        000000
__size_of_readS1StateADCSetup             (abs)        000000
__size_of_readStructureFromEeprom         (abs)        000000
__size_of_readSupply                      (abs)        000000
__size_of_readSupplyStateHandler          (abs)        000000
__size_of_readTagADC                      (abs)        000000
__size_of_readTagRoutine                  (abs)        000000
__size_of_readUID                         (abs)        000000
__size_of_receiveBluetooth                (abs)        000000
__size_of_receiveBluetoothSetup           (abs)        000000
__size_of_reset13msTimer                  (abs)        000000
__size_of_reset4SecTimer                  (abs)        000000
__size_of_resetBluetooth                  (abs)        000000
__size_of_returnFromProgramming           (abs)        000000
__size_of_rxWord                          (abs)        000000
__size_of_rxWordEDD                       (abs)        000000
__size_of_sec4OverflowIsr                 (abs)        000000
__size_of_selfCheckUID                    (abs)        000000
__size_of_sendPacket                      (abs)        000000
__size_of_setBlueLed                      (abs)        000000
__size_of_setDeviceName                   (abs)        000000
__size_of_setGreenLed                     (abs)        000000
__size_of_setOffLed                       (abs)        000000
__size_of_setRedLed                       (abs)        000000
__size_of_setSlaveMode                    (abs)        000000
__size_of_shaftTest                       (abs)        000000
__size_of_shaftTestStateHandler           (abs)        000000
__size_of_sleep                           (abs)        000000
__size_of_sleep12V                        (abs)        000000
__size_of_sleepBluetooth                  (abs)        000000
__size_of_stateCounterHandler             (abs)        000000
__size_of_tagFor0                         (abs)        000000
__size_of_tagFor1                         (abs)        000000
__size_of_tagForInterrupt                 (abs)        000000
__size_of_tagSleep                        (abs)        000000
__size_of_testMemory                      (abs)        000000
__size_of_turnOffCableTest                (abs)        000000
__size_of_updateStateIds                  (abs)        000000
__size_of_us100DelayIsr                   (abs)        000000
__size_of_us100Isr                        (abs)        000000
__size_of_us500Isr                        (abs)        000000
__size_of_variance                        (abs)        000000
__size_of_wake                            (abs)        000000
__size_of_writeByteToEeprom               (abs)        000000
__size_of_writeEUSART                     (abs)        000000
__size_of_writeStructureToEeprom          (abs)        000000
__size_ofi2_InitST7540                    (abs)        000000
__size_ofi2_InitST7540Pins                (abs)        000000
__size_ofi2_ReadConfigST7540              (abs)        000000
__size_ofi2_Set_Line_High                 (abs)        000000
__size_ofi2_Set_Line_Low                  (abs)        000000
__size_ofi2_WriteConfigST7540             (abs)        000000
__size_ofi2___wmul                        (abs)        000000
__size_ofi2__delay_ms                     (abs)        000000
__size_ofi2__delay_us                     (abs)        000000
__size_ofi2_addPacketToOutgoingQueue      (abs)        000000
__size_ofi2_checkForExistingUID           (abs)        000000
__size_ofi2_initST7540Interrupts          (abs)        000000
__size_ofi2_initST7540PPS                 (abs)        000000
__size_ofi2_initialiseModem               (abs)        000000
__size_ofi2_initialiseQueues              (abs)        000000
__size_ofi2_initialiseState               (abs)        000000
__size_ofi2_initialiseStates              (abs)        000000
__size_ofi2_ppsLock                       (abs)        000000
__size_ofi2_ppsUnlock                     (abs)        000000
__size_ofi2_reset4SecTimer                (abs)        000000
__size_ofi2_setBlueLed                    (abs)        000000
__size_ofi2_tagForInterrupt               (abs)        000000
__smallconst                              smallconst   000000
_acOr36VISR                               text198      0077F6
_activateBluetooth                        text150      00719C
_addDataToOutgoingQueue                   text146      002D42
_addNewTag                                text166      0033CA
_addPacketToIncomingQueue                 text125      002F00
_addPacketToOutgoingQueue                 text149      0057FA
_bitCounter                               bssBANK0     0000C3
_bluetooth                                text132      00353C
_bluetoothCRC                             text137      003258
_bluetoothSetupSwitch                     text139      0070BE
_bluetoothStateHandler                    text131      0045D0
_bluetoothStatus                          bssBANK0     0000C2
_btPacket                                 bssBANK0     0000CA
_bufferRXLenUCA                           bssCOMRAM    000049
_bufferRXNextUCA                          bssCOMRAM    000048
_bufferRXST7540UCA                        bssBANK2     00024F
_bufferTXLenUCA                           bssCOMRAM    00004B
_bufferTXNextUCA                          bssCOMRAM    00004A
_bufferTXST7540UCA                        bssBANK2     000200
_buildMessageST7540                       text112      001770
_byteRead                                 bssBANK0     0000C4
_calcrc                                   text189      00648A
_checkBluetoothCRC                        text136      003FA6
_checkCounter                             text195      005E5C
_checkForExistingUID                      text135      005A08
_checkForUnfiredEdds                      text66       0024EC
_checkIfTagIsRemoved                      text115      007B5E
_checkLineForConnectedUIDs                text67       00670C
_checkOutgoingMessages                    text197      007BC4
_checkPulse                               text215      006E4C
_checkStatusBits                          text148      006A70
_clearEDDStatusbits                       text37       001A56
_commandResponse                          text68       00512C
_currentStateHandler                      text88       0030B4
_dataR                                    bssBANK1     00018E
_detectFallingEdge                        text182      0076F2
_detectFallingEdgeEDD                     text71       006896
_detectRisingEdge                         text181      0076D2
_detectRisingEdgeEDD                      text70       006C7E
_device                                   text28       00293E
_deviceStateHandler                       text27       001D18
_disengageRelay                           text87       007BF4
_eddCommsIsr4                             text155      007A26
_eddCommsIsr8                             text159      005D30
_eddState                                 bssBANK0     0000B8
_expectedDets                             bssBANK0     0000C1
_fire                                     text57       004B38
_fireUIDs                                 text61       0036AC
_flagST7540                               bssCOMRAM    00004C
_gDigit                                   bssCOMRAM    000046
_halfBits                                 bssBANK0     0000C5
_handleIncomingQueuePacket                text124      0040C2
_ii                                       bssCOMRAM    000040
_incomingCommands                         text123      006956
_incomingCommandsStateHandler             text121      0067D4
_incomingQueue                            bssBANK3     000300
_index                                    bssCOMRAM    000044
_initST7540Interrupts                     text44       00796E
_initST7540PPS                            text48       0077A2
_initialise                               text2        006B80
_initialise12V                            text26       007B80
_initialise24V                            text25       007B76
_initialiseACinterrupt                    text4        007B22
_initialiseBluetooth                      text23       007BCC
_initialiseBluetoothPins                  text24       007622
_initialiseDetMemory                      text19       0051F8
_initialiseDetWindows                     text22       00544E
_initialiseEDDPins                        text18       007ADC
_initialiseEddADC                         text76       0075AC
_initialiseLed                            text17       0075FC
_initialiseModem                          text41       006A14
_initialisePic                            text16       007530
_initialiseQueues                         text42       00789E
_initialiseReadKeyCable                   text15       007506
_initialiseReadSupply                     text14       0076B2
_initialiseShaftTest                      text13       007086
_initialiseState                          text152      0069B6
_initialiseStates                         text60       0052C2
_initialiseTag                            text12       007692
_initialiseTagADC                         text178      0072A2
_initialiseTagADC_1                       text171      00726E
_initialiseTimer0                         text11       007308
_initialiseTimer1                         text10       00774E
_initialiseTimer2                         text9        00704E
_initialiseTimer4                         text8        0072D6
_initialiseTimer6                         text7        007016
_initialiseTimer8                         text6        006FDA
_initialiseUART                           text151      0074AC
_initialiseWatchDogTimer                  text5        007A12
_intialiseAcOr36V                         text3        007B16
_isr                                      intcode      000008
_j                                        bssCOMRAM    000045
_led                                      text116      003978
_ledStateHandler                          text114      002B42
_main                                     text0        006836
_mainsSleep                               text51       006C2C
_mainsWake                                text38       006ED8
_maxProgramAttempts                       bssBANK0     0000C9
_modemSleep                               text56       007AEC
_msIsr                                    text193      004DD6
_outgoingMessages                         text111      006770
_outgoingMessagesStateHandler             text108      0061BE
_outgoingQueue                            bssBANK1     000100
_packetNumberUC                           bssBANK0     0000C8
_period                                   bssBANK0     0000C6
_power                                    text138      0062BE
_ppsLock                                  text50       0077DA
_ppsUnlock                                text49       0077BE
_prepareForProgramming                    text59       006D70
_previousADC                              bssBANK0     0000BA
_previousStatus                           bssBANK0     0000BE
_previousTagADC                           bssCOMRAM    00003E
_previous_ADC                             bssCOMRAM    00003A
_processBTPacket                          text134      0010BE
_program                                  text32       00776A
_programInitialise                        text36       007B2E
_programRetryChecks                       text62       0065D6
_programUID                               text63       001FD8
_programUIDs                              text33       001434
_readBatteryADC                           text97       004886
_readBatteryADCSetup                      text98       0073F4
_readByteFromEeprom                       text21       006D20
_readCableADC                             text92       0047A0
_readCableADCSetup                        text93       0073C6
_readEDDADC                               text103      004A52
_readEDDADCSetup                          text106      007450
_readEUSART                               text190      007712
_readEarthADC                             text90       0046BA
_readEarthADCSetup                        text91       007398
_readEddADC                               text72       00755A
_readFlag                                 bssBANK0     0000B6
_readKeyCable                             text107      005B5A
_readKeyCableStateHandler                 text100      00595A
_readMainsInterval                        text96       00723A
_readS1StateADC                           text101      00496C
_readS1StateADCSetup                      text102      007422
_readStructureFromEeprom                  text20       006CD0
_readSupply                               text99       00505A
_readSupplyStateHandler                   text95       0044DE
_readTagADC                               text183      0079B6
_readTagRoutine                           text162      006134
_readUID                                  text35       00228E
_receiveBluetooth                         text192      00538A
_receiveBluetoothSetup                    text191      006F9C
_reset13msTimer                           text217      007AB8
_reset4SecTimer                           text40       007A3A
_resetBluetooth                           text144      007906
_response                                 bssBANK0     0000E0
_returnFromProgramming                    text58       0071D2
_rxWord                                   text180      005F82
_rxWordEDD                                text69       003ACA
_sec4OverflowIsr                          text161      00799E
_selfCheckUID                             text34       000CDA
_sendPacket                               text133      003818
_setBlueLed                               text120      007BAC
_setDeviceName                            text141      003D44
_setGreenLed                              text119      007BA4
_setOffLed                                text118      007B9C
_setRedLed                                text117      007B94
_setSlaveMode                             text140      00747E
_setupIndex                               bssBANK0     0000C0
_shaftTest                                text94       004F88
_shaftTestStateHandler                    text89       00568A
_sleep                                    text29       0042E2
_sleep12V                                 text55       007BE8
_sleepBluetooth                           text54       007BD2
_state                                    bssBANK1     0001A7
_stateCounterHandler                      text194      0060A6
_tagFor0                                  text165      00793A
_tagFor1                                  text164      007920
_tagForInterrupt                          text39       007786
_tagSleep                                 text53       0078B8
_tag_state                                bssCOMRAM    000047
_testCounter                              bssBANK0     0000C7
_testMemory                               text1        000182
_turnOffCableTest                         text52       007BE4
_tx                                       bssCOMRAM    00003C
_updateStateIds                           text196      0074DA
_us100DelayIsr                            text160      007BB4
_us100Isr                                 text158      007B8A
_us500Isr                                 text154      007B6A
_variance                                 text104      002720
_wake                                     text199      006F5C
_watchCounter                             bssBANK0     0000BC
_writeByteToEeprom                        text31       00641A
_writeEUSART                              text142      0066A6
_writeStructureToEeprom                   text30       006E94
addDataToOutgoingQueue@command            cstackBANK0  000068
addDataToOutgoingQueue@data               cstackBANK0  000066
addDataToOutgoingQueue@length             cstackBANK0  00006F
addDataToOutgoingQueue@length_tracker     cstackBANK0  000070
addDataToOutgoingQueue@size               cstackBANK0  000069
addNewTag@i                               cstackCOMRAM 00001A
addPacketToIncomingQueue@i                cstackBANK0  000080
addPacketToOutgoingQueue@command          cstackBANK0  000062
addPacketToOutgoingQueue@data             cstackBANK0  000060
addPacketToOutgoingQueue@destination      cstackBANK0  000064
addPacketToOutgoingQueue@length           cstackBANK0  000063
bluetoothCRC@crc                          cstackBANK0  000076
bluetoothCRC@data                         cstackBANK0  00006F
bluetoothCRC@intCrc                       cstackBANK0  00007E
bluetoothCRC@length                       cstackBANK0  000071
bluetoothCRC@loopBits                     cstackBANK0  00007C
bluetoothCRC@loopBytes                    cstackBANK0  00007A
bluetoothCRC@testBit                      cstackBANK0  000078
btemp                                     temp         000057
buildMessageST7540@dataBufLocUC           cstackBANK0  00007A
buildMessageST7540@dataOffset             cstackBANK0  000079
buildMessageST7540@index                  cstackBANK0  00007B
buildMessageST7540@packetCRCUS            cstackBANK0  000077
buildMessageST7540@statusPtr              cstackBANK0  000075
calcrc@count                              cstackCOMRAM 000003
calcrc@crc                                cstackCOMRAM 000009
calcrc@i                                  cstackCOMRAM 000008
calcrc@ptr                                cstackCOMRAM 000001
checkBluetoothCRC@data                    cstackBANK0  000085
checkBluetoothCRC@i                       cstackBANK0  000090
checkBluetoothCRC@indexCrc                cstackBANK0  000092
checkCounter@specific                     cstackCOMRAM 000001
checkForExistingUID@currentUID            cstackBANK0  000070
checkForExistingUID@i                     cstackBANK0  000072
checkForExistingUID@receivedUID           cstackBANK0  000066
checkForUnfiredEdds@i                     cstackBANK0  000082
checkLineForConnectedUIDs@attempts        cstackBANK0  00007B
checkLineForConnectedUIDs@txPacket        cstackBANK0  000076
checkStatusBits@status                    cstackBANK0  00006A
clearEDDStatusbits@i                      cstackBANK0  000066
commandResponse@RxLength                  cstackBANK0  00006A
commandResponse@TxLength                  cstackBANK0  000070
commandResponse@data                      cstackBANK0  00006B
commandResponse@i                         cstackBANK0  000071
commandResponse@i_6055                    cstackBANK0  000073
currentStateHandler@i                     cstackBANK1  0001FA
detectFallingEdge@currentTagADC           cstackCOMRAM 000003
detectFallingEdgeEDD@change               cstackBANK0  000064
detectFallingEdgeEDD@currentADC           cstackBANK0  000065
detectRisingEdge@currentTagADC            cstackCOMRAM 000003
detectRisingEdgeEDD@change                cstackBANK0  000064
detectRisingEdgeEDD@currentADC            cstackBANK0  000065
end_of_initialization                     cinit        005C8C
fire@missingPulseCheck                    cstackBANK0  000097
fireUIDs@attempts                         cstackBANK0  000094
fireUIDs@i                                cstackBANK0  000095
handleIncomingQueuePacket@index           cstackBANK0  000073
i2InitST7540@configDataRXUS               cstackCOMRAM 000014
i2InitST7540@configDataTXUS               cstackCOMRAM 00001A
i2InitST7540@frameDataRXUS                cstackCOMRAM 000011
i2InitST7540@frameDataTXUS                cstackCOMRAM 000017
i2ReadConfigST7540@bitsReceivedUC         cstackCOMRAM 000009
i2ReadConfigST7540@configDataUS           cstackCOMRAM 000003
i2ReadConfigST7540@discardUC              cstackCOMRAM 000008
i2ReadConfigST7540@frameDataUS            cstackCOMRAM 000001
i2WriteConfigST7540@bitsSentUC            cstackCOMRAM 000010
i2WriteConfigST7540@configDataUS          cstackCOMRAM 000009
i2WriteConfigST7540@discardUC             cstackCOMRAM 00000F
i2WriteConfigST7540@frameDataUS           cstackCOMRAM 000006
i2_InitST7540                             text205      005510
i2_InitST7540Pins                         text211      0075D4
i2_ReadConfigST7540                       text210      0041D6
i2_Set_Line_High                          text157      007BFC
i2_Set_Line_Low                           text156      007BF8
i2_WriteConfigST7540                      text207      006014
i2___wmul                                 text168      007648
i2___wmul@multiplicand                    cstackCOMRAM 000003
i2___wmul@multiplier                      cstackCOMRAM 000001
i2___wmul@product                         cstackCOMRAM 000005
i2__delay_ms                              text208      00712E
i2__delay_ms@delay                        cstackCOMRAM 000002
i2__delay_ms@i                            cstackCOMRAM 000004
i2__delay_us                              text209      007730
i2__delay_us@us                           cstackCOMRAM 000001
i2_addPacketToOutgoingQueue               text169      0058AA
i2_checkForExistingUID                    text167      005EF0
i2_initST7540Interrupts                   text206      0079CE
i2_initST7540PPS                          text212      00782E
i2_initialiseModem                        text202      006DBA
i2_initialiseQueues                       text204      007954
i2_initialiseState                        text203      006BD6
i2_initialiseStates                       text201      005DC6
i2_ppsLock                                text214      007866
i2_ppsUnlock                              text213      00784A
i2_reset4SecTimer                         text216      007AA6
i2_setBlueLed                             text163      007BBC
i2_tagForInterrupt                        text200      007812
i2addPacketToOutgoingQueue@command        cstackCOMRAM 000003
i2addPacketToOutgoingQueue@data           cstackCOMRAM 000001
i2addPacketToOutgoingQueue@destination    cstackCOMRAM 000005
i2addPacketToOutgoingQueue@length         cstackCOMRAM 000004
i2checkForExistingUID@currentUID          cstackCOMRAM 000011
i2checkForExistingUID@i                   cstackCOMRAM 000013
i2checkForExistingUID@receivedUID         cstackCOMRAM 000007
i2initialiseModem@attempts                cstackCOMRAM 00001D
i2initialiseState@number                  cstackCOMRAM 000003
i2initialiseState@specific                cstackCOMRAM 000001
i2initialiseStates@i                      cstackCOMRAM 000004
initialiseDetWindows@i                    cstackBANK0  00006A
initialiseModem@attempts                  cstackBANK0  00007C
initialiseState@number                    cstackBANK0  000062
initialiseState@specific                  cstackBANK0  000060
initialiseStates@i                        cstackBANK0  000063
int$flags                                 temp         000057
intlevel0                                 text         000000
intlevel1                                 text         000000
intlevel2                                 text         000000
intlevel3                                 text         000000
power@base                                cstackBANK0  000066
power@exponent                            cstackBANK0  000068
power@i                                   cstackBANK0  00006B
power@result                              cstackBANK0  00006D
processBTPacket@i                         cstackBANK0  00009C
processBTPacket@i_8508                    cstackBANK0  00009E
processBTPacket@tempDetInfo               cstackBANK0  00009A
programRetryChecks@retry                  cstackBANK0  00008B
programRetryChecks@window                 cstackBANK0  00008D
programUID@attempts                       cstackBANK0  000087
programUID@delayCompare                   cstackBANK0  000084
programUID@levelOfSuccess                 cstackBANK0  000086
programUID@txPacket                       cstackBANK0  00007B
programUID@window                         cstackBANK0  00008A
programUID@windowCompare                  cstackBANK0  000088
programUIDs@attempts                      cstackBANK0  000098
programUIDs@i                             cstackBANK0  000096
programUIDs@i_6446                        cstackBANK0  000094
readBatteryADC@ADCStore                   cstackBANK0  000086
readBatteryADC@currentVariance            cstackBANK0  000090
readBatteryADC@i                          cstackBANK0  000092
readByteFromEeprom@address                cstackBANK0  000064
readByteFromEeprom@byte                   cstackBANK0  000060
readCableADC@ADCStore                     cstackBANK0  000086
readCableADC@currentVariance              cstackBANK0  000090
readCableADC@i                            cstackBANK0  000092
readEDDADC@ADCStore                       cstackBANK0  000086
readEDDADC@currentVariance                cstackBANK0  000090
readEDDADC@i                              cstackBANK0  000092
readEarthADC@ADCStore                     cstackBANK0  000086
readEarthADC@currentVariance              cstackBANK0  000090
readEarthADC@i                            cstackBANK0  000092
readMainsInterval@i                       cstackBANK0  000060
readS1StateADC@ADCStore                   cstackBANK0  000086
readS1StateADC@currentVariance            cstackBANK0  000090
readS1StateADC@i                          cstackBANK0  000092
readStructureFromEeprom@data              cstackBANK0  000066
readStructureFromEeprom@i                 cstackBANK0  00006B
readStructureFromEeprom@size              cstackBANK0  000068
readSupplyStateHandler@batteryVoltage     cstackBANK0  000094
readTagRoutine@attempts                   cstackCOMRAM 00001C
readUID@attempts                          cstackBANK0  000080
readUID@i                                 cstackBANK0  000081
readUID@i_6063                            cstackBANK0  000083
readUID@txPacket                          cstackBANK0  00007B
readUID@window                            cstackBANK0  00007A
rxWord@eddReadState                       cstackCOMRAM 000007
rxWord@halfBits                           cstackCOMRAM 000005
rxWord@watch                              cstackCOMRAM 000008
rxWord@word                               cstackCOMRAM 000006
selfCheckUID@attempts                     cstackBANK0  000080
selfCheckUID@txPacket                     cstackBANK0  00007D
selfCheckUID@window                       cstackBANK0  000075
sendAtCommand@F17415                      dataBANK0    0000FA
sendPacket@i                              cstackBANK0  000090
sendPacket@txReg                          cstackBANK0  000085
setBaudRate@F17425                        dataBANK0    0000E4
setDeviceName@F17421                      dataBANK1    0001E4
setDeviceName@tempSerial                  cstackBANK0  00007E
setDeviceName@txreg                       cstackBANK0  000068
setSlaveMode@F17418                       dataBANK0    0000EF
setSlaveMode@txreg                        cstackBANK0  000068
stackhi                                   (abs)        000DDD
stacklo                                   (abs)        000755
start                                     init         00017E
start_initialization                      cinit        005BFC
testMemory@i                              cstackBANK0  00006C
testMemory@i_1269                         cstackBANK0  00006E
testMemory@i_1270                         cstackBANK0  000070
testMemory@i_1271                         cstackBANK0  000072
testMemory@i_1272                         cstackBANK0  000074
testMemory@i_1273                         cstackBANK0  000076
variance@i                                cstackBANK0  00007A
variance@i_1220                           cstackBANK0  000080
variance@mean                             cstackBANK0  000078
variance@sampleSize                       cstackBANK0  00006F
variance@sum                              cstackBANK0  00007C
variance@values                           cstackBANK0  00006D
writeByteToEeprom@address                 cstackBANK0  000064
writeByteToEeprom@byte                    cstackBANK0  000060
writeEUSART@data                          cstackBANK0  000060
writeEUSART@i                             cstackBANK0  000066
writeEUSART@size                          cstackBANK0  000062
writeStructureToEeprom@i                  cstackBANK0  00006A
writeStructureToEeprom@size               cstackBANK0  000068
writeStructureToEeprom@structure          cstackBANK0  000066


FUNCTION INFORMATION:

 *************** function _main *****************
 Defined at:
		line 98 in file "main.c"
 Parameters:    Size  Location     Type
		None
 Auto vars:     Size  Location     Type
		None
 Return value:  Size  Location     Type
                  1    wreg      void 
 Registers used:
		wreg, fsr1l, fsr1h, fsr2l, fsr2h, status,2, status,0, prodl, prodh, cstack
 Tracked objects:
		On entry : 
		On exit  : 
		Unchanged: 
 Data sizes:     COMRAM   BANK0   BANK1   BANK2   BANK3   BANK4   BANK5   BANK6   BANK7   BANK8   BANK9  BANK10  BANK11  BANK12  BANK13
      Params:         0       0       0       0       0       0       0       0       0       0       0       0       0       0       0
      Locals:         0       0       0       0       0       0       0       0       0       0       0       0       0       0       0
      Temps:          0       0       0       0       0       0       0       0       0       0       0       0       0       0       0
      Totals:         0       0       0       0       0       0       0       0       0       0       0       0       0       0       0
Total ram usage:        0 bytes
 Hardware stack levels required when called:   17
 This function calls:
		_device
		_deviceStateHandler
		_initialise
		_testMemory
 This function is called by:
		Startup code after reset
 This function uses a non-reentrant model


 *************** function _testMemory *****************
 Defined at:
		line 242 in file "peripherals.c"
 Parameters:    Size  Location     Type
		None
 Auto vars:     Size  Location     Type
  i               2   22[BANK0 ] int 
  i               2   20[BANK0 ] int 
  i               2   18[BANK0 ] int 
  i               2   16[BANK0 ] int 
  i               2   14[BANK0 ] int 
  i               2   12[BANK0 ] int 
 Return value:  Size  Location     Type
                  1    wreg      void 
 Registers used:
		wreg, fsr2l, fsr2h, status,2, status,0, prodl, prodh, cstack
 Tracked objects:
		On entry : 
		On exit  : 
		Unchanged: 
 Data sizes:     COMRAM   BANK0   BANK1   BANK2   BANK3   BANK4   BANK5   BANK6   BANK7   BANK8   BANK9  BANK10  BANK11  BANK12  BANK13
      Params:         0       0       0       0       0       0       0       0       0       0       0       0       0       0       0
      Locals:         0      12       0       0       0       0       0       0       0       0       0       0       0       0       0
      Temps:          0       6       0       0       0       0       0       0       0       0       0       0       0       0       0
      Totals:         0      18       0       0       0       0       0       0       0       0       0       0       0       0       0
Total ram usage:       18 bytes
 Hardware stack levels used:    1
 Hardware stack levels required when called:    9
 This function calls:
		___wmul
 This function is called by:
		_main
 This function uses a non-reentrant model


 *************** function _initialise *****************
 Defined at:
		line 43 in file "initialise.c"
 Parameters:    Size  Location     Type
		None
 Auto vars:     Size  Location     Type
		None
 Return value:  Size  Location     Type
                  1    wreg      void 
 Registers used:
		wreg, fsr2l, fsr2h, status,2, status,0, prodl, prodh, cstack
 Tracked objects:
		On entry : 
		On exit  : 
		Unchanged: 
 Data sizes:     COMRAM   BANK0   BANK1   BANK2   BANK3   BANK4   BANK5   BANK6   BANK7   BANK8   BANK9  BANK10  BANK11  BANK12  BANK13
      Params:         0       0       0       0       0       0       0       0       0       0       0       0       0       0       0
      Locals:         0       0       0       0       0       0       0       0       0       0       0       0       0       0       0
      Temps:          0       0       0       0       0       0       0       0       0       0       0       0       0       0       0
      Totals:         0       0       0       0       0       0       0       0       0       0       0       0       0       0       0
Total ram usage:        0 bytes
 Hardware stack levels used:    1
 Hardware stack levels required when called:   13
 This function calls:
		_initialise12V
		_initialise24V
		_initialiseBluetooth
		_initialiseDetMemory
		_initialiseEDDPins
		_initialiseLed
		_initialiseModem
		_initialisePic
		_initialiseReadKeyCable
		_initialiseReadSupply
		_initialiseShaftTest
		_initialiseTag
		_initialiseTimer0
		_initialiseTimer1
		_initialiseTimer2
		_initialiseTimer4
		_initialiseTimer6
		_initialiseTimer8
		_initialiseWatchDogTimer
		_intialiseAcOr36V
 This function is called by:
		_main
 This function uses a non-reentrant model


 *************** function _intialiseAcOr36V *****************
 Defined at:
		line 19 in file "acOr36V.c"
 Parameters:    Size  Location     Type
		None
 Auto vars:     Size  Location     Type
		None
 Return value:  Size  Location     Type
                  1    wreg      void 
 Registers used:
		cstack
 Tracked objects:
		On entry : 
		On exit  : 
		Unchanged: 
 Data sizes:     COMRAM   BANK0   BANK1   BANK2   BANK3   BANK4   BANK5   BANK6   BANK7   BANK8   BANK9  BANK10  BANK11  BANK12  BANK13
      Params:         0       0       0       0       0       0       0       0       0       0       0       0       0       0       0
      Locals:         0       0       0       0       0       0       0       0       0       0       0       0       0       0       0
      Temps:          0       0       0       0       0       0       0       0       0       0       0       0       0       0       0
      Totals:         0       0       0       0       0       0       0       0       0       0       0       0       0       0       0
Total ram usage:        0 bytes
 Hardware stack levels used:    1
 Hardware stack levels required when called:    9
 This function calls:
		_initialiseACinterrupt
 This function is called by:
		_initialise
 This function uses a non-reentrant model


 *************** function _initialiseACinterrupt *****************
 Defined at:
		line 87 in file "acOr36V.c"
 Parameters:    Size  Location     Type
		None
 Auto vars:     Size  Location     Type
		None
 Return value:  Size  Location     Type
                  1    wreg      void 
 Registers used:
		None
 Tracked objects:
		On entry : 
		On exit  : 
		Unchanged: 
 Data sizes:     COMRAM   BANK0   BANK1   BANK2   BANK3   BANK4   BANK5   BANK6   BANK7   BANK8   BANK9  BANK10  BANK11  BANK12  BANK13
      Params:         0       0       0       0       0       0       0       0       0       0       0       0       0       0       0
      Locals:         0       0       0       0       0       0       0       0       0       0       0       0       0       0       0
      Temps:          0       0       0       0       0       0       0       0       0       0       0       0       0       0       0
      Totals:         0       0       0       0       0       0       0       0       0       0       0       0       0       0       0
Total ram usage:        0 bytes
 Hardware stack levels used:    1
 Hardware stack levels required when called:    8
 This function calls:
		Nothing
 This function is called by:
		_intialiseAcOr36V
 This function uses a non-reentrant model


 *************** function _initialiseWatchDogTimer *****************
 Defined at:
		line 199 in file "initialise.c"
 Parameters:    Size  Location     Type
		None
 Auto vars:     Size  Location     Type
		None
 Return value:  Size  Location     Type
                  1    wreg      void 
 Registers used:
		None
 Tracked objects:
		On entry : 
		On exit  : 
		Unchanged: 
 Data sizes:     COMRAM   BANK0   BANK1   BANK2   BANK3   BANK4   BANK5   BANK6   BANK7   BANK8   BANK9  BANK10  BANK11  BANK12  BANK13
      Params:         0       0       0       0       0       0       0       0       0       0       0       0       0       0       0
      Locals:         0       0       0       0       0       0       0       0       0       0       0       0       0       0       0
      Temps:          0       0       0       0       0       0       0       0       0       0       0       0       0       0       0
      Totals:         0       0       0       0       0       0       0       0       0       0       0       0       0       0       0
Total ram usage:        0 bytes
 Hardware stack levels used:    1
 Hardware stack levels required when called:    8
 This function calls:
		Nothing
 This function is called by:
		_initialise
 This function uses a non-reentrant model


 *************** function _initialiseTimer8 *****************
 Defined at:
		line 122 in file "initialise.c"
 Parameters:    Size  Location     Type
		None
 Auto vars:     Size  Location     Type
		None
 Return value:  Size  Location     Type
                  1    wreg      void 
 Registers used:
		wreg, status,2
 Tracked objects:
		On entry : 
		On exit  : 
		Unchanged: 
 Data sizes:     COMRAM   BANK0   BANK1   BANK2   BANK3   BANK4   BANK5   BANK6   BANK7   BANK8   BANK9  BANK10  BANK11  BANK12  BANK13
      Params:         0       0       0       0       0       0       0       0       0       0       0       0       0       0       0
      Locals:         0       0       0       0       0       0       0       0       0       0       0       0       0       0       0
      Temps:          0       0       0       0       0       0       0       0       0       0       0       0       0       0       0
      Totals:         0       0       0       0       0       0       0       0       0       0       0       0       0       0       0
Total ram usage:        0 bytes
 Hardware stack levels used:    1
 Hardware stack levels required when called:    8
 This function calls:
		Nothing
 This function is called by:
		_initialise
 This function uses a non-reentrant model


 *************** function _initialiseTimer6 *****************
 Defined at:
		line 106 in file "initialise.c"
 Parameters:    Size  Location     Type
		None
 Auto vars:     Size  Location     Type
		None
 Return value:  Size  Location     Type
                  1    wreg      void 
 Registers used:
		wreg, status,2
 Tracked objects:
		On entry : 
		On exit  : 
		Unchanged: 
 Data sizes:     COMRAM   BANK0   BANK1   BANK2   BANK3   BANK4   BANK5   BANK6   BANK7   BANK8   BANK9  BANK10  BANK11  BANK12  BANK13
      Params:         0       0       0       0       0       0       0       0       0       0       0       0       0       0       0
      Locals:         0       0       0       0       0       0       0       0       0       0       0       0       0       0       0
      Temps:          0       0       0       0       0       0       0       0       0       0       0       0       0       0       0
      Totals:         0       0       0       0       0       0       0       0       0       0       0       0       0       0       0
Total ram usage:        0 bytes
 Hardware stack levels used:    1
 Hardware stack levels required when called:    8
 This function calls:
		Nothing
 This function is called by:
		_initialise
 This function uses a non-reentrant model


 *************** function _initialiseTimer4 *****************
 Defined at:
		line 92 in file "initialise.c"
 Parameters:    Size  Location     Type
		None
 Auto vars:     Size  Location     Type
		None
 Return value:  Size  Location     Type
                  1    wreg      void 
 Registers used:
		wreg, status,2
 Tracked objects:
		On entry : 
		On exit  : 
		Unchanged: 
 Data sizes:     COMRAM   BANK0   BANK1   BANK2   BANK3   BANK4   BANK5   BANK6   BANK7   BANK8   BANK9  BANK10  BANK11  BANK12  BANK13
      Params:         0       0       0       0       0       0       0       0       0       0       0       0       0       0       0
      Locals:         0       0       0       0       0       0       0       0       0       0       0       0       0       0       0
      Temps:          0       0       0       0       0       0       0       0       0       0       0       0       0       0       0
      Totals:         0       0       0       0       0       0       0       0       0       0       0       0       0       0       0
Total ram usage:        0 bytes
 Hardware stack levels used:    1
 Hardware stack levels required when called:    8
 This function calls:
		Nothing
 This function is called by:
		_initialise
 This function uses a non-reentrant model


 *************** function _initialiseTimer2 *****************
 Defined at:
		line 76 in file "initialise.c"
 Parameters:    Size  Location     Type
		None
 Auto vars:     Size  Location     Type
		None
 Return value:  Size  Location     Type
                  1    wreg      void 
 Registers used:
		wreg, status,2
 Tracked objects:
		On entry : 
		On exit  : 
		Unchanged: 
 Data sizes:     COMRAM   BANK0   BANK1   BANK2   BANK3   BANK4   BANK5   BANK6   BANK7   BANK8   BANK9  BANK10  BANK11  BANK12  BANK13
      Params:         0       0       0       0       0       0       0       0       0       0       0       0       0       0       0
      Locals:         0       0       0       0       0       0       0       0       0       0       0       0       0       0       0
      Temps:          0       0       0       0       0       0       0       0       0       0       0       0       0       0       0
      Totals:         0       0       0       0       0       0       0       0       0       0       0       0       0       0       0
Total ram usage:        0 bytes
 Hardware stack levels used:    1
 Hardware stack levels required when called:    8
 This function calls:
		Nothing
 This function is called by:
		_initialise
 This function uses a non-reentrant model


 *************** function _initialiseTimer1 *****************
 Defined at:
		line 149 in file "initialise.c"
 Parameters:    Size  Location     Type
		None
 Auto vars:     Size  Location     Type
		None
 Return value:  Size  Location     Type
                  1    wreg      void 
 Registers used:
		wreg, status,2
 Tracked objects:
		On entry : 
		On exit  : 
		Unchanged: 
 Data sizes:     COMRAM   BANK0   BANK1   BANK2   BANK3   BANK4   BANK5   BANK6   BANK7   BANK8   BANK9  BANK10  BANK11  BANK12  BANK13
      Params:         0       0       0       0       0       0       0       0       0       0       0       0       0       0       0
      Locals:         0       0       0       0       0       0       0       0       0       0       0       0       0       0       0
      Temps:          0       0       0       0       0       0       0       0       0       0       0       0       0       0       0
      Totals:         0       0       0       0       0       0       0       0       0       0       0       0       0       0       0
Total ram usage:        0 bytes
 Hardware stack levels used:    1
 Hardware stack levels required when called:    8
 This function calls:
		Nothing
 This function is called by:
		_initialise
 This function uses a non-reentrant model


 *************** function _initialiseTimer0 *****************
 Defined at:
		line 135 in file "initialise.c"
 Parameters:    Size  Location     Type
		None
 Auto vars:     Size  Location     Type
		None
 Return value:  Size  Location     Type
                  1    wreg      void 
 Registers used:
		wreg, status,2
 Tracked objects:
		On entry : 
		On exit  : 
		Unchanged: 
 Data sizes:     COMRAM   BANK0   BANK1   BANK2   BANK3   BANK4   BANK5   BANK6   BANK7   BANK8   BANK9  BANK10  BANK11  BANK12  BANK13
      Params:         0       0       0       0       0       0       0       0       0       0       0       0       0       0       0
      Locals:         0       0       0       0       0       0       0       0       0       0       0       0       0       0       0
      Temps:          0       0       0       0       0       0       0       0       0       0       0       0       0       0       0
      Totals:         0       0       0       0       0       0       0       0       0       0       0       0       0       0       0
Total ram usage:        0 bytes
 Hardware stack levels used:    1
 Hardware stack levels required when called:    8
 This function calls:
		Nothing
 This function is called by:
		_initialise
 This function uses a non-reentrant model


 *************** function _initialiseTag *****************
 Defined at:
		line 52 in file "tagRead.c"
 Parameters:    Size  Location     Type
		None
 Auto vars:     Size  Location     Type
		None
 Return value:  Size  Location     Type
                  1    wreg      void 
 Registers used:
		wreg, status,2, cstack
 Tracked objects:
		On entry : 
		On exit  : 
		Unchanged: 
 Data sizes:     COMRAM   BANK0   BANK1   BANK2   BANK3   BANK4   BANK5   BANK6   BANK7   BANK8   BANK9  BANK10  BANK11  BANK12  BANK13
      Params:         0       0       0       0       0       0       0       0       0       0       0       0       0       0       0
      Locals:         0       0       0       0       0       0       0       0       0       0       0       0       0       0       0
      Temps:          0       0       0       0       0       0       0       0       0       0       0       0       0       0       0
      Totals:         0       0       0       0       0       0       0       0       0       0       0       0       0       0       0
Total ram usage:        0 bytes
 Hardware stack levels used:    1
 Hardware stack levels required when called:    9
 This function calls:
		_ppsLock
		_ppsUnlock
		_tagForInterrupt
 This function is called by:
		_initialise
 This function uses a non-reentrant model


 *************** function _initialiseShaftTest *****************
 Defined at:
		line 22 in file "shaftTest.c"
 Parameters:    Size  Location     Type
		None
 Auto vars:     Size  Location     Type
		None
 Return value:  Size  Location     Type
                  1    wreg      void 
 Registers used:
		wreg, fsr2l, fsr2h, status,2, status,0, cstack
 Tracked objects:
		On entry : 
		On exit  : 
		Unchanged: 
 Data sizes:     COMRAM   BANK0   BANK1   BANK2   BANK3   BANK4   BANK5   BANK6   BANK7   BANK8   BANK9  BANK10  BANK11  BANK12  BANK13
      Params:         0       0       0       0       0       0       0       0       0       0       0       0       0       0       0
      Locals:         0       0       0       0       0       0       0       0       0       0       0       0       0       0       0
      Temps:          0       0       0       0       0       0       0       0       0       0       0       0       0       0       0
      Totals:         0       0       0       0       0       0       0       0       0       0       0       0       0       0       0
Total ram usage:        0 bytes
 Hardware stack levels used:    1
 Hardware stack levels required when called:    9
 This function calls:
		_initialiseState
 This function is called by:
		_initialise
 This function uses a non-reentrant model


 *************** function _initialiseReadSupply *****************
 Defined at:
		line 20 in file "readSupply.c"
 Parameters:    Size  Location     Type
		None
 Auto vars:     Size  Location     Type
		None
 Return value:  Size  Location     Type
                  1    wreg      void 
 Registers used:
		wreg, fsr2l, fsr2h, status,2, status,0, cstack
 Tracked objects:
		On entry : 
		On exit  : 
		Unchanged: 
 Data sizes:     COMRAM   BANK0   BANK1   BANK2   BANK3   BANK4   BANK5   BANK6   BANK7   BANK8   BANK9  BANK10  BANK11  BANK12  BANK13
      Params:         0       0       0       0       0       0       0       0       0       0       0       0       0       0       0
      Locals:         0       0       0       0       0       0       0       0       0       0       0       0       0       0       0
      Temps:          0       0       0       0       0       0       0       0       0       0       0       0       0       0       0
      Totals:         0       0       0       0       0       0       0       0       0       0       0       0       0       0       0
Total ram usage:        0 bytes
 Hardware stack levels used:    1
 Hardware stack levels required when called:    9
 This function calls:
		_initialiseState
 This function is called by:
		_initialise
 This function uses a non-reentrant model


 *************** function _initialiseReadKeyCable *****************
 Defined at:
		line 21 in file "readKeyCable.c"
 Parameters:    Size  Location     Type
		None
 Auto vars:     Size  Location     Type
		None
 Return value:  Size  Location     Type
                  1    wreg      void 
 Registers used:
		wreg, fsr2l, fsr2h, status,2, status,0, cstack
 Tracked objects:
		On entry : 
		On exit  : 
		Unchanged: 
 Data sizes:     COMRAM   BANK0   BANK1   BANK2   BANK3   BANK4   BANK5   BANK6   BANK7   BANK8   BANK9  BANK10  BANK11  BANK12  BANK13
      Params:         0       0       0       0       0       0       0       0       0       0       0       0       0       0       0
      Locals:         0       0       0       0       0       0       0       0       0       0       0       0       0       0       0
      Temps:          0       0       0       0       0       0       0       0       0       0       0       0       0       0       0
      Totals:         0       0       0       0       0       0       0       0       0       0       0       0       0       0       0
Total ram usage:        0 bytes
 Hardware stack levels used:    1
 Hardware stack levels required when called:    9
 This function calls:
		_initialiseState
 This function is called by:
		_initialise
 This function uses a non-reentrant model


 *************** function _initialisePic *****************
 Defined at:
		line 68 in file "initialise.c"
 Parameters:    Size  Location     Type
		None
 Auto vars:     Size  Location     Type
		None
 Return value:  Size  Location     Type
                  1    wreg      void 
 Registers used:
		wreg, status,2
 Tracked objects:
		On entry : 
		On exit  : 
		Unchanged: 
 Data sizes:     COMRAM   BANK0   BANK1   BANK2   BANK3   BANK4   BANK5   BANK6   BANK7   BANK8   BANK9  BANK10  BANK11  BANK12  BANK13
      Params:         0       0       0       0       0       0       0       0       0       0       0       0       0       0       0
      Locals:         0       0       0       0       0       0       0       0       0       0       0       0       0       0       0
      Temps:          0       0       0       0       0       0       0       0       0       0       0       0       0       0       0
      Totals:         0       0       0       0       0       0       0       0       0       0       0       0       0       0       0
Total ram usage:        0 bytes
 Hardware stack levels used:    1
 Hardware stack levels required when called:    8
 This function calls:
		Nothing
 This function is called by:
		_initialise
 This function uses a non-reentrant model


 *************** function _initialiseLed *****************
 Defined at:
		line 20 in file "led.c"
 Parameters:    Size  Location     Type
		None
 Auto vars:     Size  Location     Type
		None
 Return value:  Size  Location     Type
                  1    wreg      void 
 Registers used:
		wreg, fsr2l, fsr2h, status,2, status,0, cstack
 Tracked objects:
		On entry : 
		On exit  : 
		Unchanged: 
 Data sizes:     COMRAM   BANK0   BANK1   BANK2   BANK3   BANK4   BANK5   BANK6   BANK7   BANK8   BANK9  BANK10  BANK11  BANK12  BANK13
      Params:         0       0       0       0       0       0       0       0       0       0       0       0       0       0       0
      Locals:         0       0       0       0       0       0       0       0       0       0       0       0       0       0       0
      Temps:          0       0       0       0       0       0       0       0       0       0       0       0       0       0       0
      Totals:         0       0       0       0       0       0       0       0       0       0       0       0       0       0       0
Total ram usage:        0 bytes
 Hardware stack levels used:    1
 Hardware stack levels required when called:    9
 This function calls:
		_initialiseState
		_setOffLed
 This function is called by:
		_initialise
 This function uses a non-reentrant model


 *************** function _initialiseEDDPins *****************
 Defined at:
		line 68 in file "eddComms.c"
 Parameters:    Size  Location     Type
		None
 Auto vars:     Size  Location     Type
		None
 Return value:  Size  Location     Type
                  1    wreg      void 
 Registers used:
		None
 Tracked objects:
		On entry : 
		On exit  : 
		Unchanged: 
 Data sizes:     COMRAM   BANK0   BANK1   BANK2   BANK3   BANK4   BANK5   BANK6   BANK7   BANK8   BANK9  BANK10  BANK11  BANK12  BANK13
      Params:         0       0       0       0       0       0       0       0       0       0       0       0       0       0       0
      Locals:         0       0       0       0       0       0       0       0       0       0       0       0       0       0       0
      Temps:          0       0       0       0       0       0       0       0       0       0       0       0       0       0       0
      Totals:         0       0       0       0       0       0       0       0       0       0       0       0       0       0       0
Total ram usage:        0 bytes
 Hardware stack levels used:    1
 Hardware stack levels required when called:    8
 This function calls:
		Nothing
 This function is called by:
		_initialise
 This function uses a non-reentrant model


 *************** function _initialiseDetMemory *****************
 Defined at:
		line 205 in file "initialise.c"
 Parameters:    Size  Location     Type
		None
 Auto vars:     Size  Location     Type
		None
 Return value:  Size  Location     Type
                  1    wreg      void 
 Registers used:
		wreg, fsr2l, fsr2h, status,2, status,0, prodl, prodh, cstack
 Tracked objects:
		On entry : 
		On exit  : 
		Unchanged: 
 Data sizes:     COMRAM   BANK0   BANK1   BANK2   BANK3   BANK4   BANK5   BANK6   BANK7   BANK8   BANK9  BANK10  BANK11  BANK12  BANK13
      Params:         0       0       0       0       0       0       0       0       0       0       0       0       0       0       0
      Locals:         0       0       0       0       0       0       0       0       0       0       0       0       0       0       0
      Temps:          0       2       0       0       0       0       0       0       0       0       0       0       0       0       0
      Totals:         0       2       0       0       0       0       0       0       0       0       0       0       0       0       0
Total ram usage:        2 bytes
 Hardware stack levels used:    1
 Hardware stack levels required when called:   10
 This function calls:
		___wmul
		_clearEDDStatusbits
		_initialiseDetWindows
		_readStructureFromEeprom
 This function is called by:
		_initialise
 This function uses a non-reentrant model


 *************** function _readStructureFromEeprom *****************
 Defined at:
		line 236 in file "peripherals.c"
 Parameters:    Size  Location     Type
  data            2    6[BANK0 ] PTR unsigned char 
		 -> ABB_1.det_arrays(909), ABB_1(917), 
  size            2    8[BANK0 ] int 
 Auto vars:     Size  Location     Type
  i               2   11[BANK0 ] int 
 Return value:  Size  Location     Type
                  1    wreg      void 
 Registers used:
		wreg, fsr2l, fsr2h, status,2, status,0, cstack
 Tracked objects:
		On entry : 
		On exit  : 
		Unchanged: 
 Data sizes:     COMRAM   BANK0   BANK1   BANK2   BANK3   BANK4   BANK5   BANK6   BANK7   BANK8   BANK9  BANK10  BANK11  BANK12  BANK13
      Params:         0       4       0       0       0       0       0       0       0       0       0       0       0       0       0
      Locals:         0       2       0       0       0       0       0       0       0       0       0       0       0       0       0
      Temps:          0       1       0       0       0       0       0       0       0       0       0       0       0       0       0
      Totals:         0       7       0       0       0       0       0       0       0       0       0       0       0       0       0
Total ram usage:        7 bytes
 Hardware stack levels used:    1
 Hardware stack levels required when called:    9
 This function calls:
		_readByteFromEeprom
 This function is called by:
		_initialiseDetMemory
 This function uses a non-reentrant model


 *************** function _readByteFromEeprom *****************
 Defined at:
		line 219 in file "peripherals.c"
 Parameters:    Size  Location     Type
  byte            2    0[BANK0 ] PTR unsigned char 
		 -> ABB_1.det_arrays(909), ABB_1(917), 
 Auto vars:     Size  Location     Type
  address         2    4[BANK0 ] unsigned int 
 Return value:  Size  Location     Type
                  1    wreg      void 
 Registers used:
		wreg, fsr2l, fsr2h, status,2, status,0
 Tracked objects:
		On entry : 
		On exit  : 
		Unchanged: 
 Data sizes:     COMRAM   BANK0   BANK1   BANK2   BANK3   BANK4   BANK5   BANK6   BANK7   BANK8   BANK9  BANK10  BANK11  BANK12  BANK13
      Params:         0       2       0       0       0       0       0       0       0       0       0       0       0       0       0
      Locals:         0       2       0       0       0       0       0       0       0       0       0       0       0       0       0
      Temps:          0       2       0       0       0       0       0       0       0       0       0       0       0       0       0
      Totals:         0       6       0       0       0       0       0       0       0       0       0       0       0       0       0
Total ram usage:        6 bytes
 Hardware stack levels used:    1
 Hardware stack levels required when called:    8
 This function calls:
		Nothing
 This function is called by:
		_readStructureFromEeprom
 This function uses a non-reentrant model


 *************** function _initialiseDetWindows *****************
 Defined at:
		line 166 in file "initialise.c"
 Parameters:    Size  Location     Type
		None
 Auto vars:     Size  Location     Type
  i               2   10[BANK0 ] int 
 Return value:  Size  Location     Type
                  1    wreg      void 
 Registers used:
		wreg, fsr2l, fsr2h, status,2, status,0, prodl, prodh, cstack
 Tracked objects:
		On entry : 
		On exit  : 
		Unchanged: 
 Data sizes:     COMRAM   BANK0   BANK1   BANK2   BANK3   BANK4   BANK5   BANK6   BANK7   BANK8   BANK9  BANK10  BANK11  BANK12  BANK13
      Params:         0       0       0       0       0       0       0       0       0       0       0       0       0       0       0
      Locals:         0       2       0       0       0       0       0       0       0       0       0       0       0       0       0
      Temps:          0       4       0       0       0       0       0       0       0       0       0       0       0       0       0
      Totals:         0       6       0       0       0       0       0       0       0       0       0       0       0       0       0
Total ram usage:        6 bytes
 Hardware stack levels used:    1
 Hardware stack levels required when called:    9
 This function calls:
		___wmul
 This function is called by:
		_initialiseDetMemory
 This function uses a non-reentrant model


 *************** function _initialiseBluetooth *****************
 Defined at:
		line 44 in file "bluetooth.c"
 Parameters:    Size  Location     Type
		None
 Auto vars:     Size  Location     Type
		None
 Return value:  Size  Location     Type
                  1    wreg      void 
 Registers used:
		wreg, status,2, cstack
 Tracked objects:
		On entry : 
		On exit  : 
		Unchanged: 
 Data sizes:     COMRAM   BANK0   BANK1   BANK2   BANK3   BANK4   BANK5   BANK6   BANK7   BANK8   BANK9  BANK10  BANK11  BANK12  BANK13
      Params:         0       0       0       0       0       0       0       0       0       0       0       0       0       0       0
      Locals:         0       0       0       0       0       0       0       0       0       0       0       0       0       0       0
      Temps:          0       0       0       0       0       0       0       0       0       0       0       0       0       0       0
      Totals:         0       0       0       0       0       0       0       0       0       0       0       0       0       0       0
Total ram usage:        0 bytes
 Hardware stack levels used:    1
 Hardware stack levels required when called:   10
 This function calls:
		_initialiseBluetoothPins
 This function is called by:
		_initialise
 This function uses a non-reentrant model


 *************** function _initialiseBluetoothPins *****************
 Defined at:
		line 60 in file "bluetooth.c"
 Parameters:    Size  Location     Type
		None
 Auto vars:     Size  Location     Type
		None
 Return value:  Size  Location     Type
                  1    wreg      void 
 Registers used:
		wreg, status,2, cstack
 Tracked objects:
		On entry : 
		On exit  : 
		Unchanged: 
 Data sizes:     COMRAM   BANK0   BANK1   BANK2   BANK3   BANK4   BANK5   BANK6   BANK7   BANK8   BANK9  BANK10  BANK11  BANK12  BANK13
      Params:         0       0       0       0       0       0       0       0       0       0       0       0       0       0       0
      Locals:         0       0       0       0       0       0       0       0       0       0       0       0       0       0       0
      Temps:          0       0       0       0       0       0       0       0       0       0       0       0       0       0       0
      Totals:         0       0       0       0       0       0       0       0       0       0       0       0       0       0       0
Total ram usage:        0 bytes
 Hardware stack levels used:    1
 Hardware stack levels required when called:    9
 This function calls:
		_ppsLock
		_ppsUnlock
 This function is called by:
		_initialiseBluetooth
 This function uses a non-reentrant model


 *************** function _initialise24V *****************
 Defined at:
		line 179 in file "initialise.c"
 Parameters:    Size  Location     Type
		None
 Auto vars:     Size  Location     Type
		None
 Return value:  Size  Location     Type
                  1    wreg      void 
 Registers used:
		None
 Tracked objects:
		On entry : 
		On exit  : 
		Unchanged: 
 Data sizes:     COMRAM   BANK0   BANK1   BANK2   BANK3   BANK4   BANK5   BANK6   BANK7   BANK8   BANK9  BANK10  BANK11  BANK12  BANK13
      Params:         0       0       0       0       0       0       0       0       0       0       0       0       0       0       0
      Locals:         0       0       0       0       0       0       0       0       0       0       0       0       0       0       0
      Temps:          0       0       0       0       0       0       0       0       0       0       0       0       0       0       0
      Totals:         0       0       0       0       0       0       0       0       0       0       0       0       0       0       0
Total ram usage:        0 bytes
 Hardware stack levels used:    1
 Hardware stack levels required when called:    8
 This function calls:
		Nothing
 This function is called by:
		_initialise
 This function uses a non-reentrant model


 *************** function _initialise12V *****************
 Defined at:
		line 173 in file "initialise.c"
 Parameters:    Size  Location     Type
		None
 Auto vars:     Size  Location     Type
		None
 Return value:  Size  Location     Type
                  1    wreg      void 
 Registers used:
		None
 Tracked objects:
		On entry : 
		On exit  : 
		Unchanged: 
 Data sizes:     COMRAM   BANK0   BANK1   BANK2   BANK3   BANK4   BANK5   BANK6   BANK7   BANK8   BANK9  BANK10  BANK11  BANK12  BANK13
      Params:         0       0       0       0       0       0       0       0       0       0       0       0       0       0       0
      Locals:         0       0       0       0       0       0       0       0       0       0       0       0       0       0       0
      Temps:          0       0       0       0       0       0       0       0       0       0       0       0       0       0       0
      Totals:         0       0       0       0       0       0       0       0       0       0       0       0       0       0       0
Total ram usage:        0 bytes
 Hardware stack levels used:    1
 Hardware stack levels required when called:    8
 This function calls:
		Nothing
 This function is called by:
		_initialise
 This function uses a non-reentrant model


 *************** function _deviceStateHandler *****************
 Defined at:
		line 257 in file "main.c"
 Parameters:    Size  Location     Type
		None
 Auto vars:     Size  Location     Type
		None
 Return value:  Size  Location     Type
                  1    wreg      void 
 Registers used:
		wreg, fsr2l, fsr2h, status,2, status,0
 Tracked objects:
		On entry : 
		On exit  : 
		Unchanged: 
 Data sizes:     COMRAM   BANK0   BANK1   BANK2   BANK3   BANK4   BANK5   BANK6   BANK7   BANK8   BANK9  BANK10  BANK11  BANK12  BANK13
      Params:         0       0       0       0       0       0       0       0       0       0       0       0       0       0       0
      Locals:         0       0       0       0       0       0       0       0       0       0       0       0       0       0       0
      Temps:          0       0       0       0       0       0       0       0       0       0       0       0       0       0       0
      Totals:         0       0       0       0       0       0       0       0       0       0       0       0       0       0       0
Total ram usage:        0 bytes
 Hardware stack levels used:    1
 Hardware stack levels required when called:    8
 This function calls:
		Nothing
 This function is called by:
		_main
 This function uses a non-reentrant model


 *************** function _device *****************
 Defined at:
		line 121 in file "main.c"
 Parameters:    Size  Location     Type
		None
 Auto vars:     Size  Location     Type
		None
 Return value:  Size  Location     Type
                  1    wreg      void 
 Registers used:
		wreg, fsr1l, fsr1h, fsr2l, fsr2h, status,2, status,0, prodl, prodh, cstack
 Tracked objects:
		On entry : 
		On exit  : 
		Unchanged: 
 Data sizes:     COMRAM   BANK0   BANK1   BANK2   BANK3   BANK4   BANK5   BANK6   BANK7   BANK8   BANK9  BANK10  BANK11  BANK12  BANK13
      Params:         0       0       0       0       0       0       0       0       0       0       0       0       0       0       0
      Locals:         0       0       0       0       0       0       0       0       0       0       0       0       0       0       0
      Temps:          0       0       0       0       0       0       0       0       0       0       0       0       0       0       0
      Totals:         0       0       0       0       0       0       0       0       0       0       0       0       0       0       0
Total ram usage:        0 bytes
 Hardware stack levels used:    1
 Hardware stack levels required when called:   16
 This function calls:
		_activateBluetooth
		_checkStatusBits
		_currentStateHandler
		_disengageRelay
		_fire
		_mainsSleep
		_mainsWake
		_program
		_sleep
		_sleepBluetooth
		_writeStructureToEeprom
 This function is called by:
		_main
 This function uses a non-reentrant model


 *************** function _sleep *****************
 Defined at:
		line 29 in file "sleep.c"
 Parameters:    Size  Location     Type
		None
 Auto vars:     Size  Location     Type
		None
 Return value:  Size  Location     Type
                  1    wreg      void 
 Registers used:
		wreg, fsr2l, fsr2h, status,2, status,0, prodl, prodh, cstack
 Tracked objects:
		On entry : 
		On exit  : 
		Unchanged: 
 Data sizes:     COMRAM   BANK0   BANK1   BANK2   BANK3   BANK4   BANK5   BANK6   BANK7   BANK8   BANK9  BANK10  BANK11  BANK12  BANK13
      Params:         0       0       0       0       0       0       0       0       0       0       0       0       0       0       0
      Locals:         0       0       0       0       0       0       0       0       0       0       0       0       0       0       0
      Temps:          0       2       0       0       0       0       0       0       0       0       0       0       0       0       0
      Totals:         0       2       0       0       0       0       0       0       0       0       0       0       0       0       0
Total ram usage:        2 bytes
 Hardware stack levels used:    1
 Hardware stack levels required when called:   10
 This function calls:
		_Set_Line_Low
		___wmul
		__delay_ms
		_modemSleep
		_setOffLed
		_sleep12V
		_sleepBluetooth
		_tagSleep
		_turnOffCableTest
		_writeStructureToEeprom
 This function is called by:
		_device
 This function uses a non-reentrant model


 *************** function _writeStructureToEeprom *****************
 Defined at:
		line 230 in file "peripherals.c"
 Parameters:    Size  Location     Type
  structure       2    6[BANK0 ] PTR unsigned char 
		 -> ABB_1.det_arrays(909), ABB_1(917), 
  size            2    8[BANK0 ] unsigned int 
 Auto vars:     Size  Location     Type
  i               2   10[BANK0 ] int 
 Return value:  Size  Location     Type
                  1    wreg      void 
 Registers used:
		wreg, fsr2l, fsr2h, status,2, status,0, cstack
 Tracked objects:
		On entry : 
		On exit  : 
		Unchanged: 
 Data sizes:     COMRAM   BANK0   BANK1   BANK2   BANK3   BANK4   BANK5   BANK6   BANK7   BANK8   BANK9  BANK10  BANK11  BANK12  BANK13
      Params:         0       4       0       0       0       0       0       0       0       0       0       0       0       0       0
      Locals:         0       2       0       0       0       0       0       0       0       0       0       0       0       0       0
      Temps:          0       0       0       0       0       0       0       0       0       0       0       0       0       0       0
      Totals:         0       6       0       0       0       0       0       0       0       0       0       0       0       0       0
Total ram usage:        6 bytes
 Hardware stack levels used:    1
 Hardware stack levels required when called:    9
 This function calls:
		_writeByteToEeprom
 This function is called by:
		_device
		_sleep
 This function uses a non-reentrant model


 *************** function _writeByteToEeprom *****************
 Defined at:
		line 200 in file "peripherals.c"
 Parameters:    Size  Location     Type
  byte            2    0[BANK0 ] PTR unsigned char 
		 -> ABB_1.det_arrays(909), ABB_1(917), 
 Auto vars:     Size  Location     Type
  address         2    4[BANK0 ] unsigned int 
 Return value:  Size  Location     Type
                  1    wreg      void 
 Registers used:
		wreg, fsr2l, fsr2h, status,2, status,0
 Tracked objects:
		On entry : 
		On exit  : 
		Unchanged: 
 Data sizes:     COMRAM   BANK0   BANK1   BANK2   BANK3   BANK4   BANK5   BANK6   BANK7   BANK8   BANK9  BANK10  BANK11  BANK12  BANK13
      Params:         0       2       0       0       0       0       0       0       0       0       0       0       0       0       0
      Locals:         0       2       0       0       0       0       0       0       0       0       0       0       0       0       0
      Temps:          0       2       0       0       0       0       0       0       0       0       0       0       0       0       0
      Totals:         0       6       0       0       0       0       0       0       0       0       0       0       0       0       0
Total ram usage:        6 bytes
 Hardware stack levels used:    1
 Hardware stack levels required when called:    8
 This function calls:
		Nothing
 This function is called by:
		_writeStructureToEeprom
 This function uses a non-reentrant model


 *************** function _program *****************
 Defined at:
		line 41 in file "program.c"
 Parameters:    Size  Location     Type
		None
 Auto vars:     Size  Location     Type
		None
 Return value:  Size  Location     Type
                  1    wreg      void 
 Registers used:
		wreg, fsr1l, fsr1h, fsr2l, fsr2h, status,2, status,0, prodl, prodh, cstack
 Tracked objects:
		On entry : 
		On exit  : 
		Unchanged: 
 Data sizes:     COMRAM   BANK0   BANK1   BANK2   BANK3   BANK4   BANK5   BANK6   BANK7   BANK8   BANK9  BANK10  BANK11  BANK12  BANK13
      Params:         0       0       0       0       0       0       0       0       0       0       0       0       0       0       0
      Locals:         0       0       0       0       0       0       0       0       0       0       0       0       0       0       0
      Temps:          0       0       0       0       0       0       0       0       0       0       0       0       0       0       0
      Totals:         0       0       0       0       0       0       0       0       0       0       0       0       0       0       0
Total ram usage:        0 bytes
 Hardware stack levels used:    1
 Hardware stack levels required when called:   15
 This function calls:
		_initialiseStates
		_prepareForProgramming
		_programInitialise
		_programUIDs
		_returnFromProgramming
		_setOffLed
 This function is called by:
		_device
 This function uses a non-reentrant model


 *************** function _programUIDs *****************
 Defined at:
		line 100 in file "program.c"
 Parameters:    Size  Location     Type
		None
 Auto vars:     Size  Location     Type
  i               2   52[BANK0 ] int 
  i               2   54[BANK0 ] int 
  attempts        1   56[BANK0 ] unsigned char 
 Return value:  Size  Location     Type
                  1    wreg      void 
 Registers used:
		wreg, fsr1l, fsr1h, fsr2l, fsr2h, status,2, status,0, prodl, prodh, cstack
 Tracked objects:
		On entry : 
		On exit  : 
		Unchanged: 
 Data sizes:     COMRAM   BANK0   BANK1   BANK2   BANK3   BANK4   BANK5   BANK6   BANK7   BANK8   BANK9  BANK10  BANK11  BANK12  BANK13
      Params:         0       0       0       0       0       0       0       0       0       0       0       0       0       0       0
      Locals:         0       5       0       0       0       0       0       0       0       0       0       0       0       0       0
      Temps:          0       6       0       0       0       0       0       0       0       0       0       0       0       0       0
      Totals:         0      11       0       0       0       0       0       0       0       0       0       0       0       0       0
Total ram usage:       11 bytes
 Hardware stack levels used:    1
 Hardware stack levels required when called:   14
 This function calls:
		_EDD_Calibrate
		__delay_ms
		_addPacketToOutgoingQueue
		_checkLineForConnectedUIDs
		_programRetryChecks
		_programUID
		_readUID
		_selfCheckUID
		_setBlueLed
 This function is called by:
		_program
 This function uses a non-reentrant model


 *************** function _selfCheckUID *****************
 Defined at:
		line 305 in file "eddComms.c"
 Parameters:    Size  Location     Type
  window          2   21[BANK0 ] unsigned short 
 Auto vars:     Size  Location     Type
  txPacket        3   29[BANK0 ] unsigned char [3]
  attempts        1   32[BANK0 ] unsigned char 
 Return value:  Size  Location     Type
                  1    wreg      unsigned char 
 Registers used:
		wreg, fsr2l, fsr2h, status,2, status,0, cstack
 Tracked objects:
		On entry : 
		On exit  : 
		Unchanged: 
 Data sizes:     COMRAM   BANK0   BANK1   BANK2   BANK3   BANK4   BANK5   BANK6   BANK7   BANK8   BANK9  BANK10  BANK11  BANK12  BANK13
      Params:         0       2       0       0       0       0       0       0       0       0       0       0       0       0       0
      Locals:         0       4       0       0       0       0       0       0       0       0       0       0       0       0       0
      Temps:          0       6       0       0       0       0       0       0       0       0       0       0       0       0       0
      Totals:         0      12       0       0       0       0       0       0       0       0       0       0       0       0       0
Total ram usage:       12 bytes
 Hardware stack levels used:    1
 Hardware stack levels required when called:   12
 This function calls:
		_commandResponse
 This function is called by:
		_programUIDs
 This function uses a non-reentrant model


 *************** function _readUID *****************
 Defined at:
		line 212 in file "eddComms.c"
 Parameters:    Size  Location     Type
  window          1    wreg     unsigned char 
 Auto vars:     Size  Location     Type
  window          1   26[BANK0 ] unsigned char 
  i               2   35[BANK0 ] int 
  i               2   33[BANK0 ] int 
  txPacket        5   27[BANK0 ] unsigned char [5]
  attempts        1   32[BANK0 ] unsigned char 
 Return value:  Size  Location     Type
                  1    wreg      unsigned char 
 Registers used:
		wreg, fsr1l, fsr1h, fsr2l, fsr2h, status,2, status,0, prodl, prodh, cstack
 Tracked objects:
		On entry : 
		On exit  : 
		Unchanged: 
 Data sizes:     COMRAM   BANK0   BANK1   BANK2   BANK3   BANK4   BANK5   BANK6   BANK7   BANK8   BANK9  BANK10  BANK11  BANK12  BANK13
      Params:         0       0       0       0       0       0       0       0       0       0       0       0       0       0       0
      Locals:         0      11       0       0       0       0       0       0       0       0       0       0       0       0       0
      Temps:          0       5       0       0       0       0       0       0       0       0       0       0       0       0       0
      Totals:         0      16       0       0       0       0       0       0       0       0       0       0       0       0       0
Total ram usage:       16 bytes
 Hardware stack levels used:    1
 Hardware stack levels required when called:   12
 This function calls:
		_checkForExistingUID
		_commandResponse
 This function is called by:
		_programUIDs
 This function uses a non-reentrant model


 *************** function _programInitialise *****************
 Defined at:
		line 57 in file "program.c"
 Parameters:    Size  Location     Type
		None
 Auto vars:     Size  Location     Type
		None
 Return value:  Size  Location     Type
                  1    wreg      void 
 Registers used:
		wreg, fsr2l, fsr2h, status,2, status,0, cstack
 Tracked objects:
		On entry : 
		On exit  : 
		Unchanged: 
 Data sizes:     COMRAM   BANK0   BANK1   BANK2   BANK3   BANK4   BANK5   BANK6   BANK7   BANK8   BANK9  BANK10  BANK11  BANK12  BANK13
      Params:         0       0       0       0       0       0       0       0       0       0       0       0       0       0       0
      Locals:         0       0       0       0       0       0       0       0       0       0       0       0       0       0       0
      Temps:          0       0       0       0       0       0       0       0       0       0       0       0       0       0       0
      Totals:         0       0       0       0       0       0       0       0       0       0       0       0       0       0       0
Total ram usage:        0 bytes
 Hardware stack levels used:    1
 Hardware stack levels required when called:   10
 This function calls:
		_EDD_Init_Comms
		_clearEDDStatusbits
 This function is called by:
		_program
		_firePic
 This function uses a non-reentrant model


 *************** function _clearEDDStatusbits *****************
 Defined at:
		line 477 in file "peripherals.c"
 Parameters:    Size  Location     Type
		None
 Auto vars:     Size  Location     Type
  i               2    6[BANK0 ] int 
 Return value:  Size  Location     Type
                  1    wreg      void 
 Registers used:
		wreg, fsr2l, fsr2h, status,2, status,0
 Tracked objects:
		On entry : 
		On exit  : 
		Unchanged: 
 Data sizes:     COMRAM   BANK0   BANK1   BANK2   BANK3   BANK4   BANK5   BANK6   BANK7   BANK8   BANK9  BANK10  BANK11  BANK12  BANK13
      Params:         0       0       0       0       0       0       0       0       0       0       0       0       0       0       0
      Locals:         0       2       0       0       0       0       0       0       0       0       0       0       0       0       0
      Temps:          0       6       0       0       0       0       0       0       0       0       0       0       0       0       0
      Totals:         0       8       0       0       0       0       0       0       0       0       0       0       0       0       0
Total ram usage:        8 bytes
 Hardware stack levels used:    1
 Hardware stack levels required when called:    8
 This function calls:
		Nothing
 This function is called by:
		_initialiseDetMemory
		_programInitialise
 This function uses a non-reentrant model


 *************** function _mainsWake *****************
 Defined at:
		line 105 in file "sleep.c"
 Parameters:    Size  Location     Type
		None
 Auto vars:     Size  Location     Type
		None
 Return value:  Size  Location     Type
                  1    wreg      void 
 Registers used:
		wreg, fsr2l, fsr2h, status,2, status,0, prodl, prodh, cstack
 Tracked objects:
		On entry : 
		On exit  : 
		Unchanged: 
 Data sizes:     COMRAM   BANK0   BANK1   BANK2   BANK3   BANK4   BANK5   BANK6   BANK7   BANK8   BANK9  BANK10  BANK11  BANK12  BANK13
      Params:         0       0       0       0       0       0       0       0       0       0       0       0       0       0       0
      Locals:         0       0       0       0       0       0       0       0       0       0       0       0       0       0       0
      Temps:          0       0       0       0       0       0       0       0       0       0       0       0       0       0       0
      Totals:         0       0       0       0       0       0       0       0       0       0       0       0       0       0       0
Total ram usage:        0 bytes
 Hardware stack levels used:    1
 Hardware stack levels required when called:   13
 This function calls:
		__delay_ms
		_initialiseModem
		_initialiseStates
		_reset4SecTimer
		_tagForInterrupt
 This function is called by:
		_device
 This function uses a non-reentrant model


 *************** function _tagForInterrupt *****************
 Defined at:
		line 79 in file "tagRead.c"
 Parameters:    Size  Location     Type
		None
 Auto vars:     Size  Location     Type
		None
 Return value:  Size  Location     Type
                  1    wreg      void 
 Registers used:
		None
 Tracked objects:
		On entry : 
		On exit  : 
		Unchanged: 
 Data sizes:     COMRAM   BANK0   BANK1   BANK2   BANK3   BANK4   BANK5   BANK6   BANK7   BANK8   BANK9  BANK10  BANK11  BANK12  BANK13
      Params:         0       0       0       0       0       0       0       0       0       0       0       0       0       0       0
      Locals:         0       0       0       0       0       0       0       0       0       0       0       0       0       0       0
      Temps:          0       0       0       0       0       0       0       0       0       0       0       0       0       0       0
      Totals:         0       0       0       0       0       0       0       0       0       0       0       0       0       0       0
Total ram usage:        0 bytes
 Hardware stack levels used:    1
 Hardware stack levels required when called:    8
 This function calls:
		Nothing
 This function is called by:
		_initialiseTag
		_mainsWake
 This function uses a non-reentrant model


 *************** function _reset4SecTimer *****************
 Defined at:
		line 70 in file "acOr36V.c"
 Parameters:    Size  Location     Type
		None
 Auto vars:     Size  Location     Type
		None
 Return value:  Size  Location     Type
                  1    wreg      void 
 Registers used:
		wreg, status,2
 Tracked objects:
		On entry : 
		On exit  : 
		Unchanged: 
 Data sizes:     COMRAM   BANK0   BANK1   BANK2   BANK3   BANK4   BANK5   BANK6   BANK7   BANK8   BANK9  BANK10  BANK11  BANK12  BANK13
      Params:         0       0       0       0       0       0       0       0       0       0       0       0       0       0       0
      Locals:         0       0       0       0       0       0       0       0       0       0       0       0       0       0       0
      Temps:          0       0       0       0       0       0       0       0       0       0       0       0       0       0       0
      Totals:         0       0       0       0       0       0       0       0       0       0       0       0       0       0       0
Total ram usage:        0 bytes
 Hardware stack levels used:    1
 Hardware stack levels required when called:    8
 This function calls:
		Nothing
 This function is called by:
		_mainsWake
 This function uses a non-reentrant model


 *************** function _initialiseModem *****************
 Defined at:
		line 22 in file "outgoingMessages.c"
 Parameters:    Size  Location     Type
		None
 Auto vars:     Size  Location     Type
  attempts        1   28[BANK0 ] unsigned char 
 Return value:  Size  Location     Type
                  1    wreg      void 
 Registers used:
		wreg, fsr2l, fsr2h, status,2, status,0, prodl, prodh, cstack
 Tracked objects:
		On entry : 
		On exit  : 
		Unchanged: 
 Data sizes:     COMRAM   BANK0   BANK1   BANK2   BANK3   BANK4   BANK5   BANK6   BANK7   BANK8   BANK9  BANK10  BANK11  BANK12  BANK13
      Params:         0       0       0       0       0       0       0       0       0       0       0       0       0       0       0
      Locals:         0       1       0       0       0       0       0       0       0       0       0       0       0       0       0
      Temps:          0       0       0       0       0       0       0       0       0       0       0       0       0       0       0
      Totals:         0       1       0       0       0       0       0       0       0       0       0       0       0       0       0
Total ram usage:        1 bytes
 Hardware stack levels used:    1
 Hardware stack levels required when called:   12
 This function calls:
		_InitST7540
		_initialiseQueues
		_initialiseState
 This function is called by:
		_initialise
		_mainsWake
 This function uses a non-reentrant model


 *************** function _initialiseQueues *****************
 Defined at:
		line 96 in file "outgoingMessages.c"
 Parameters:    Size  Location     Type
		None
 Auto vars:     Size  Location     Type
		None
 Return value:  Size  Location     Type
                  1    wreg      void 
 Registers used:
		wreg, status,2
 Tracked objects:
		On entry : 
		On exit  : 
		Unchanged: 
 Data sizes:     COMRAM   BANK0   BANK1   BANK2   BANK3   BANK4   BANK5   BANK6   BANK7   BANK8   BANK9  BANK10  BANK11  BANK12  BANK13
      Params:         0       0       0       0       0       0       0       0       0       0       0       0       0       0       0
      Locals:         0       0       0       0       0       0       0       0       0       0       0       0       0       0       0
      Temps:          0       0       0       0       0       0       0       0       0       0       0       0       0       0       0
      Totals:         0       0       0       0       0       0       0       0       0       0       0       0       0       0       0
Total ram usage:        0 bytes
 Hardware stack levels used:    1
 Hardware stack levels required when called:    8
 This function calls:
		Nothing
 This function is called by:
		_initialiseModem
 This function uses a non-reentrant model


 *************** function _InitST7540 *****************
 Defined at:
		line 72 in file "ST7540.c"
 Parameters:    Size  Location     Type
		None
 Auto vars:     Size  Location     Type
  configDataRX    3   25[BANK0 ] unsigned um
  frameDataRXU    3   22[BANK0 ] unsigned um
  configDataTX    3   19[BANK0 ] unsigned um
  frameDataTXU    3   16[BANK0 ] unsigned um
 Return value:  Size  Location     Type
                  1    wreg      unsigned char 
 Registers used:
		wreg, fsr2l, fsr2h, status,2, status,0, prodl, prodh, cstack
 Tracked objects:
		On entry : 
		On exit  : 
		Unchanged: 
 Data sizes:     COMRAM   BANK0   BANK1   BANK2   BANK3   BANK4   BANK5   BANK6   BANK7   BANK8   BANK9  BANK10  BANK11  BANK12  BANK13
      Params:         0       0       0       0       0       0       0       0       0       0       0       0       0       0       0
      Locals:         0      12       0       0       0       0       0       0       0       0       0       0       0       0       0
      Temps:          0       0       0       0       0       0       0       0       0       0       0       0       0       0       0
      Totals:         0      12       0       0       0       0       0       0       0       0       0       0       0       0       0
Total ram usage:       12 bytes
 Hardware stack levels used:    1
 Hardware stack levels required when called:   11
 This function calls:
		_InitST7540Pins
		_ReadConfigST7540
		_WriteConfigST7540
		_initST7540Interrupts
 This function is called by:
		_initialiseModem
 This function uses a non-reentrant model


 *************** function _initST7540Interrupts *****************
 Defined at:
		line 364 in file "ST7540.c"
 Parameters:    Size  Location     Type
		None
 Auto vars:     Size  Location     Type
		None
 Return value:  Size  Location     Type
                  1    wreg      void 
 Registers used:
		None
 Tracked objects:
		On entry : 
		On exit  : 
		Unchanged: 
 Data sizes:     COMRAM   BANK0   BANK1   BANK2   BANK3   BANK4   BANK5   BANK6   BANK7   BANK8   BANK9  BANK10  BANK11  BANK12  BANK13
      Params:         0       0       0       0       0       0       0       0       0       0       0       0       0       0       0
      Locals:         0       0       0       0       0       0       0       0       0       0       0       0       0       0       0
      Temps:          0       0       0       0       0       0       0       0       0       0       0       0       0       0       0
      Totals:         0       0       0       0       0       0       0       0       0       0       0       0       0       0       0
Total ram usage:        0 bytes
 Hardware stack levels used:    1
 Hardware stack levels required when called:    8
 This function calls:
		Nothing
 This function is called by:
		_InitST7540
 This function uses a non-reentrant model


 *************** function _WriteConfigST7540 *****************
 Defined at:
		line 112 in file "ST7540.c"
 Parameters:    Size  Location     Type
  frameDataUS     3    5[BANK0 ] unsigned um
  configDataUS    3    8[BANK0 ] unsigned um
 Auto vars:     Size  Location     Type
  bitsSentUC      1   15[BANK0 ] unsigned char 
  discardUC       1   14[BANK0 ] unsigned char 
 Return value:  Size  Location     Type
                  1    wreg      void 
 Registers used:
		wreg, fsr2l, fsr2h, status,2, status,0, prodl, prodh, cstack
 Tracked objects:
		On entry : 
		On exit  : 
		Unchanged: 
 Data sizes:     COMRAM   BANK0   BANK1   BANK2   BANK3   BANK4   BANK5   BANK6   BANK7   BANK8   BANK9  BANK10  BANK11  BANK12  BANK13
      Params:         0       6       0       0       0       0       0       0       0       0       0       0       0       0       0
      Locals:         0       2       0       0       0       0       0       0       0       0       0       0       0       0       0
      Temps:          0       3       0       0       0       0       0       0       0       0       0       0       0       0       0
      Totals:         0      11       0       0       0       0       0       0       0       0       0       0       0       0       0
Total ram usage:       11 bytes
 Hardware stack levels used:    1
 Hardware stack levels required when called:   10
 This function calls:
		__delay_ms
 This function is called by:
		_InitST7540
 This function uses a non-reentrant model


 *************** function _ReadConfigST7540 *****************
 Defined at:
		line 140 in file "ST7540.c"
 Parameters:    Size  Location     Type
  frameDataUS     2    0[BANK0 ] PTR unsigned um
		 -> InitST7540@frameDataRXUS(3), 
  configDataUS    2    2[BANK0 ] PTR unsigned um
		 -> InitST7540@configDataRXUS(3), 
 Auto vars:     Size  Location     Type
  bitsReceived    1    8[BANK0 ] unsigned char 
  discardUC       1    7[BANK0 ] unsigned char 
 Return value:  Size  Location     Type
                  1    wreg      void 
 Registers used:
		wreg, fsr2l, fsr2h, status,2, status,0, prodl, prodh
 Tracked objects:
		On entry : 
		On exit  : 
		Unchanged: 
 Data sizes:     COMRAM   BANK0   BANK1   BANK2   BANK3   BANK4   BANK5   BANK6   BANK7   BANK8   BANK9  BANK10  BANK11  BANK12  BANK13
      Params:         0       4       0       0       0       0       0       0       0       0       0       0       0       0       0
      Locals:         0       2       0       0       0       0       0       0       0       0       0       0       0       0       0
      Temps:          0       3       0       0       0       0       0       0       0       0       0       0       0       0       0
      Totals:         0       9       0       0       0       0       0       0       0       0       0       0       0       0       0
Total ram usage:        9 bytes
 Hardware stack levels used:    1
 Hardware stack levels required when called:    8
 This function calls:
		Nothing
 This function is called by:
		_InitST7540
 This function uses a non-reentrant model


 *************** function _InitST7540Pins *****************
 Defined at:
		line 326 in file "ST7540.c"
 Parameters:    Size  Location     Type
		None
 Auto vars:     Size  Location     Type
		None
 Return value:  Size  Location     Type
                  1    wreg      void 
 Registers used:
		wreg, status,2, cstack
 Tracked objects:
		On entry : 
		On exit  : 
		Unchanged: 
 Data sizes:     COMRAM   BANK0   BANK1   BANK2   BANK3   BANK4   BANK5   BANK6   BANK7   BANK8   BANK9  BANK10  BANK11  BANK12  BANK13
      Params:         0       0       0       0       0       0       0       0       0       0       0       0       0       0       0
      Locals:         0       0       0       0       0       0       0       0       0       0       0       0       0       0       0
      Temps:          0       0       0       0       0       0       0       0       0       0       0       0       0       0       0
      Totals:         0       0       0       0       0       0       0       0       0       0       0       0       0       0       0
Total ram usage:        0 bytes
 Hardware stack levels used:    1
 Hardware stack levels required when called:   10
 This function calls:
		_initST7540PPS
 This function is called by:
		_InitST7540
 This function uses a non-reentrant model


 *************** function _initST7540PPS *****************
 Defined at:
		line 356 in file "ST7540.c"
 Parameters:    Size  Location     Type
		None
 Auto vars:     Size  Location     Type
		None
 Return value:  Size  Location     Type
                  1    wreg      void 
 Registers used:
		wreg, status,2, cstack
 Tracked objects:
		On entry : 
		On exit  : 
		Unchanged: 
 Data sizes:     COMRAM   BANK0   BANK1   BANK2   BANK3   BANK4   BANK5   BANK6   BANK7   BANK8   BANK9  BANK10  BANK11  BANK12  BANK13
      Params:         0       0       0       0       0       0       0       0       0       0       0       0       0       0       0
      Locals:         0       0       0       0       0       0       0       0       0       0       0       0       0       0       0
      Temps:          0       0       0       0       0       0       0       0       0       0       0       0       0       0       0
      Totals:         0       0       0       0       0       0       0       0       0       0       0       0       0       0       0
Total ram usage:        0 bytes
 Hardware stack levels used:    1
 Hardware stack levels required when called:    9
 This function calls:
		_ppsLock
		_ppsUnlock
 This function is called by:
		_InitST7540Pins
 This function uses a non-reentrant model


 *************** function _ppsUnlock *****************
 Defined at:
		line 160 in file "peripherals.c"
 Parameters:    Size  Location     Type
		None
 Auto vars:     Size  Location     Type
		None
 Return value:  Size  Location     Type
                  1    wreg      void 
 Registers used:
		wreg, status,2
 Tracked objects:
		On entry : 
		On exit  : 
		Unchanged: 
 Data sizes:     COMRAM   BANK0   BANK1   BANK2   BANK3   BANK4   BANK5   BANK6   BANK7   BANK8   BANK9  BANK10  BANK11  BANK12  BANK13
      Params:         0       0       0       0       0       0       0       0       0       0       0       0       0       0       0
      Locals:         0       0       0       0       0       0       0       0       0       0       0       0       0       0       0
      Temps:          0       0       0       0       0       0       0       0       0       0       0       0       0       0       0
      Totals:         0       0       0       0       0       0       0       0       0       0       0       0       0       0       0
Total ram usage:        0 bytes
 Hardware stack levels used:    1
 Hardware stack levels required when called:    8
 This function calls:
		Nothing
 This function is called by:
		_initST7540PPS
		_initialiseTag
		_initialiseBluetoothPins
 This function uses a non-reentrant model


 *************** function _ppsLock *****************
 Defined at:
		line 148 in file "peripherals.c"
 Parameters:    Size  Location     Type
		None
 Auto vars:     Size  Location     Type
		None
 Return value:  Size  Location     Type
                  1    wreg      void 
 Registers used:
		wreg, status,2
 Tracked objects:
		On entry : 
		On exit  : 
		Unchanged: 
 Data sizes:     COMRAM   BANK0   BANK1   BANK2   BANK3   BANK4   BANK5   BANK6   BANK7   BANK8   BANK9  BANK10  BANK11  BANK12  BANK13
      Params:         0       0       0       0       0       0       0       0       0       0       0       0       0       0       0
      Locals:         0       0       0       0       0       0       0       0       0       0       0       0       0       0       0
      Temps:          0       0       0       0       0       0       0       0       0       0       0       0       0       0       0
      Totals:         0       0       0       0       0       0       0       0       0       0       0       0       0       0       0
Total ram usage:        0 bytes
 Hardware stack levels used:    1
 Hardware stack levels required when called:    8
 This function calls:
		Nothing
 This function is called by:
		_initST7540PPS
		_initialiseTag
		_initialiseBluetoothPins
 This function uses a non-reentrant model


 *************** function _mainsSleep *****************
 Defined at:
		line 83 in file "sleep.c"
 Parameters:    Size  Location     Type
		None
 Auto vars:     Size  Location     Type
		None
 Return value:  Size  Location     Type
                  1    wreg      void 
 Registers used:
		wreg, status,2, status,0, cstack
 Tracked objects:
		On entry : 
		On exit  : 
		Unchanged: 
 Data sizes:     COMRAM   BANK0   BANK1   BANK2   BANK3   BANK4   BANK5   BANK6   BANK7   BANK8   BANK9  BANK10  BANK11  BANK12  BANK13
      Params:         0       0       0       0       0       0       0       0       0       0       0       0       0       0       0
      Locals:         0       0       0       0       0       0       0       0       0       0       0       0       0       0       0
      Temps:          0       0       0       0       0       0       0       0       0       0       0       0       0       0       0
      Totals:         0       0       0       0       0       0       0       0       0       0       0       0       0       0       0
Total ram usage:        0 bytes
 Hardware stack levels used:    1
 Hardware stack levels required when called:   10
 This function calls:
		_Set_Line_Low
		__delay_ms
		_modemSleep
		_setOffLed
		_sleep12V
		_sleepBluetooth
		_tagSleep
		_turnOffCableTest
 This function is called by:
		_device
 This function uses a non-reentrant model


 *************** function _turnOffCableTest *****************
 Defined at:
		line 189 in file "readKeyCable.c"
 Parameters:    Size  Location     Type
		None
 Auto vars:     Size  Location     Type
		None
 Return value:  Size  Location     Type
                  1    wreg      void 
 Registers used:
		None
 Tracked objects:
		On entry : 
		On exit  : 
		Unchanged: 
 Data sizes:     COMRAM   BANK0   BANK1   BANK2   BANK3   BANK4   BANK5   BANK6   BANK7   BANK8   BANK9  BANK10  BANK11  BANK12  BANK13
      Params:         0       0       0       0       0       0       0       0       0       0       0       0       0       0       0
      Locals:         0       0       0       0       0       0       0       0       0       0       0       0       0       0       0
      Temps:          0       0       0       0       0       0       0       0       0       0       0       0       0       0       0
      Totals:         0       0       0       0       0       0       0       0       0       0       0       0       0       0       0
Total ram usage:        0 bytes
 Hardware stack levels used:    1
 Hardware stack levels required when called:    8
 This function calls:
		Nothing
 This function is called by:
		_sleep
		_mainsSleep
 This function uses a non-reentrant model


 *************** function _tagSleep *****************
 Defined at:
		line 66 in file "tagRead.c"
 Parameters:    Size  Location     Type
		None
 Auto vars:     Size  Location     Type
		None
 Return value:  Size  Location     Type
                  1    wreg      void 
 Registers used:
		None
 Tracked objects:
		On entry : 
		On exit  : 
		Unchanged: 
 Data sizes:     COMRAM   BANK0   BANK1   BANK2   BANK3   BANK4   BANK5   BANK6   BANK7   BANK8   BANK9  BANK10  BANK11  BANK12  BANK13
      Params:         0       0       0       0       0       0       0       0       0       0       0       0       0       0       0
      Locals:         0       0       0       0       0       0       0       0       0       0       0       0       0       0       0
      Temps:          0       0       0       0       0       0       0       0       0       0       0       0       0       0       0
      Totals:         0       0       0       0       0       0       0       0       0       0       0       0       0       0       0
Total ram usage:        0 bytes
 Hardware stack levels used:    1
 Hardware stack levels required when called:    8
 This function calls:
		Nothing
 This function is called by:
		_sleep
		_mainsSleep
 This function uses a non-reentrant model


 *************** function _sleepBluetooth *****************
 Defined at:
		line 434 in file "bluetooth.c"
 Parameters:    Size  Location     Type
		None
 Auto vars:     Size  Location     Type
		None
 Return value:  Size  Location     Type
                  1    wreg      void 
 Registers used:
		None
 Tracked objects:
		On entry : 
		On exit  : 
		Unchanged: 
 Data sizes:     COMRAM   BANK0   BANK1   BANK2   BANK3   BANK4   BANK5   BANK6   BANK7   BANK8   BANK9  BANK10  BANK11  BANK12  BANK13
      Params:         0       0       0       0       0       0       0       0       0       0       0       0       0       0       0
      Locals:         0       0       0       0       0       0       0       0       0       0       0       0       0       0       0
      Temps:          0       0       0       0       0       0       0       0       0       0       0       0       0       0       0
      Totals:         0       0       0       0       0       0       0       0       0       0       0       0       0       0       0
Total ram usage:        0 bytes
 Hardware stack levels used:    1
 Hardware stack levels required when called:    8
 This function calls:
		Nothing
 This function is called by:
		_device
		_sleep
		_mainsSleep
 This function uses a non-reentrant model


 *************** function _sleep12V *****************
 Defined at:
		line 79 in file "sleep.c"
 Parameters:    Size  Location     Type
		None
 Auto vars:     Size  Location     Type
		None
 Return value:  Size  Location     Type
                  1    wreg      void 
 Registers used:
		None
 Tracked objects:
		On entry : 
		On exit  : 
		Unchanged: 
 Data sizes:     COMRAM   BANK0   BANK1   BANK2   BANK3   BANK4   BANK5   BANK6   BANK7   BANK8   BANK9  BANK10  BANK11  BANK12  BANK13
      Params:         0       0       0       0       0       0       0       0       0       0       0       0       0       0       0
      Locals:         0       0       0       0       0       0       0       0       0       0       0       0       0       0       0
      Temps:          0       0       0       0       0       0       0       0       0       0       0       0       0       0       0
      Totals:         0       0       0       0       0       0       0       0       0       0       0       0       0       0       0
Total ram usage:        0 bytes
 Hardware stack levels used:    1
 Hardware stack levels required when called:    8
 This function calls:
		Nothing
 This function is called by:
		_sleep
		_mainsSleep
 This function uses a non-reentrant model


 *************** function _modemSleep *****************
 Defined at:
		line 374 in file "ST7540.c"
 Parameters:    Size  Location     Type
		None
 Auto vars:     Size  Location     Type
		None
 Return value:  Size  Location     Type
                  1    wreg      void 
 Registers used:
		None
 Tracked objects:
		On entry : 
		On exit  : 
		Unchanged: 
 Data sizes:     COMRAM   BANK0   BANK1   BANK2   BANK3   BANK4   BANK5   BANK6   BANK7   BANK8   BANK9  BANK10  BANK11  BANK12  BANK13
      Params:         0       0       0       0       0       0       0       0       0       0       0       0       0       0       0
      Locals:         0       0       0       0       0       0       0       0       0       0       0       0       0       0       0
      Temps:          0       0       0       0       0       0       0       0       0       0       0       0       0       0       0
      Totals:         0       0       0       0       0       0       0       0       0       0       0       0       0       0       0
Total ram usage:        0 bytes
 Hardware stack levels used:    1
 Hardware stack levels required when called:    8
 This function calls:
		Nothing
 This function is called by:
		_sleep
		_mainsSleep
 This function uses a non-reentrant model


 *************** function _fire *****************
 Defined at:
		line 39 in file "fire.c"
 Parameters:    Size  Location     Type
		None
 Auto vars:     Size  Location     Type
  missingPulse    1   55[BANK0 ] unsigned char 
 Return value:  Size  Location     Type
                  1    wreg      void 
 Registers used:
		wreg, fsr1l, fsr1h, fsr2l, fsr2h, status,2, status,0, prodl, prodh, cstack
 Tracked objects:
		On entry : 
		On exit  : 
		Unchanged: 
 Data sizes:     COMRAM   BANK0   BANK1   BANK2   BANK3   BANK4   BANK5   BANK6   BANK7   BANK8   BANK9  BANK10  BANK11  BANK12  BANK13
      Params:         0       0       0       0       0       0       0       0       0       0       0       0       0       0       0
      Locals:         0       1       0       0       0       0       0       0       0       0       0       0       0       0       0
      Temps:          0       0       0       0       0       0       0       0       0       0       0       0       0       0       0
      Totals:         0       1       0       0       0       0       0       0       0       0       0       0       0       0       0
Total ram usage:        1 bytes
 Hardware stack levels used:    1
 Hardware stack levels required when called:   15
 This function calls:
		_EDD_Blast
		_EDD_Energy_Store
		_EDD_Init_Comms
		__delay_ms
		_addDataToOutgoingQueue
		_checkForUnfiredEdds
		_fireUIDs
		_initialiseStates
		_prepareForProgramming
		_returnFromProgramming
		_setRedLed
 This function is called by:
		_device
 This function uses a non-reentrant model


 *************** function _returnFromProgramming *****************
 Defined at:
		line 82 in file "program.c"
 Parameters:    Size  Location     Type
		None
 Auto vars:     Size  Location     Type
		None
 Return value:  Size  Location     Type
                  1    wreg      void 
 Registers used:
		wreg, status,2, cstack
 Tracked objects:
		On entry : 
		On exit  : 
		Unchanged: 
 Data sizes:     COMRAM   BANK0   BANK1   BANK2   BANK3   BANK4   BANK5   BANK6   BANK7   BANK8   BANK9  BANK10  BANK11  BANK12  BANK13
      Params:         0       0       0       0       0       0       0       0       0       0       0       0       0       0       0
      Locals:         0       0       0       0       0       0       0       0       0       0       0       0       0       0       0
      Temps:          0       0       0       0       0       0       0       0       0       0       0       0       0       0       0
      Totals:         0       0       0       0       0       0       0       0       0       0       0       0       0       0       0
Total ram usage:        0 bytes
 Hardware stack levels used:    1
 Hardware stack levels required when called:    9
 This function calls:
		_Set_Line_Low
 This function is called by:
		_program
		_fire
		_firePic
 This function uses a non-reentrant model


 *************** function _prepareForProgramming *****************
 Defined at:
		line 63 in file "program.c"
 Parameters:    Size  Location     Type
		None
 Auto vars:     Size  Location     Type
		None
 Return value:  Size  Location     Type
                  1    wreg      void 
 Registers used:
		wreg, status,2, status,0, cstack
 Tracked objects:
		On entry : 
		On exit  : 
		Unchanged: 
 Data sizes:     COMRAM   BANK0   BANK1   BANK2   BANK3   BANK4   BANK5   BANK6   BANK7   BANK8   BANK9  BANK10  BANK11  BANK12  BANK13
      Params:         0       0       0       0       0       0       0       0       0       0       0       0       0       0       0
      Locals:         0       0       0       0       0       0       0       0       0       0       0       0       0       0       0
      Temps:          0       0       0       0       0       0       0       0       0       0       0       0       0       0       0
      Totals:         0       0       0       0       0       0       0       0       0       0       0       0       0       0       0
Total ram usage:        0 bytes
 Hardware stack levels used:    1
 Hardware stack levels required when called:   10
 This function calls:
		_Set_Line_High
		__delay_ms
 This function is called by:
		_program
		_fire
		_firePic
 This function uses a non-reentrant model


 *************** function _initialiseStates *****************
 Defined at:
		line 185 in file "initialise.c"
 Parameters:    Size  Location     Type
		None
 Auto vars:     Size  Location     Type
  i               2    3[BANK0 ] int 
 Return value:  Size  Location     Type
                  1    wreg      void 
 Registers used:
		wreg, fsr2l, fsr2h, status,2, status,0, cstack
 Tracked objects:
		On entry : 
		On exit  : 
		Unchanged: 
 Data sizes:     COMRAM   BANK0   BANK1   BANK2   BANK3   BANK4   BANK5   BANK6   BANK7   BANK8   BANK9  BANK10  BANK11  BANK12  BANK13
      Params:         0       0       0       0       0       0       0       0       0       0       0       0       0       0       0
      Locals:         0       2       0       0       0       0       0       0       0       0       0       0       0       0       0
      Temps:          0       0       0       0       0       0       0       0       0       0       0       0       0       0       0
      Totals:         0       2       0       0       0       0       0       0       0       0       0       0       0       0       0
Total ram usage:        2 bytes
 Hardware stack levels used:    1
 Hardware stack levels required when called:    9
 This function calls:
		_initialiseState
 This function is called by:
		_program
		_fire
		_mainsWake
		_firePic
 This function uses a non-reentrant model


 *************** function _fireUIDs *****************
 Defined at:
		line 113 in file "fire.c"
 Parameters:    Size  Location     Type
		None
 Auto vars:     Size  Location     Type
  i               2   53[BANK0 ] int 
  attempts        1   52[BANK0 ] unsigned char 
 Return value:  Size  Location     Type
                  1    wreg      void 
 Registers used:
		wreg, fsr2l, fsr2h, status,2, status,0, prodl, prodh, cstack
 Tracked objects:
		On entry : 
		On exit  : 
		Unchanged: 
 Data sizes:     COMRAM   BANK0   BANK1   BANK2   BANK3   BANK4   BANK5   BANK6   BANK7   BANK8   BANK9  BANK10  BANK11  BANK12  BANK13
      Params:         0       0       0       0       0       0       0       0       0       0       0       0       0       0       0
      Locals:         0       3       0       0       0       0       0       0       0       0       0       0       0       0       0
      Temps:          0       6       0       0       0       0       0       0       0       0       0       0       0       0       0
      Totals:         0       9       0       0       0       0       0       0       0       0       0       0       0       0       0
Total ram usage:        9 bytes
 Hardware stack levels used:    1
 Hardware stack levels required when called:   14
 This function calls:
		_EDD_Calibrate
		_programRetryChecks
 This function is called by:
		_fire
		_firePic
 This function uses a non-reentrant model


 *************** function _programRetryChecks *****************
 Defined at:
		line 279 in file "eddComms.c"
 Parameters:    Size  Location     Type
  window          1    wreg     unsigned char 
  retry           2   43[BANK0 ] PTR unsigned char 
		 -> fireUIDs@attempts(1), programUIDs@attempts(1), 
 Auto vars:     Size  Location     Type
  window          1   45[BANK0 ] unsigned char 
 Return value:  Size  Location     Type
                  1    wreg      unsigned char 
 Registers used:
		wreg, fsr2l, fsr2h, status,2, status,0, prodl, prodh, cstack
 Tracked objects:
		On entry : 
		On exit  : 
		Unchanged: 
 Data sizes:     COMRAM   BANK0   BANK1   BANK2   BANK3   BANK4   BANK5   BANK6   BANK7   BANK8   BANK9  BANK10  BANK11  BANK12  BANK13
      Params:         0       2       0       0       0       0       0       0       0       0       0       0       0       0       0
      Locals:         0       1       0       0       0       0       0       0       0       0       0       0       0       0       0
      Temps:          0       0       0       0       0       0       0       0       0       0       0       0       0       0       0
      Totals:         0       3       0       0       0       0       0       0       0       0       0       0       0       0       0
Total ram usage:        3 bytes
 Hardware stack levels used:    1
 Hardware stack levels required when called:   13
 This function calls:
		_programUID
 This function is called by:
		_programUIDs
		_fireUIDs
 This function uses a non-reentrant model


 *************** function _programUID *****************
 Defined at:
		line 248 in file "eddComms.c"
 Parameters:    Size  Location     Type
  window          1    wreg     unsigned char 
 Auto vars:     Size  Location     Type
  window          1   42[BANK0 ] unsigned char 
  windowCompar    2   40[BANK0 ] unsigned short 
  delayCompare    2   36[BANK0 ] unsigned short 
  txPacket        9   27[BANK0 ] unsigned char [9]
  attempts        1   39[BANK0 ] unsigned char 
  levelOfSucce    1   38[BANK0 ] unsigned char 
 Return value:  Size  Location     Type
                  1    wreg      unsigned char 
 Registers used:
		wreg, fsr2l, fsr2h, status,2, status,0, prodl, prodh, cstack
 Tracked objects:
		On entry : 
		On exit  : 
		Unchanged: 
 Data sizes:     COMRAM   BANK0   BANK1   BANK2   BANK3   BANK4   BANK5   BANK6   BANK7   BANK8   BANK9  BANK10  BANK11  BANK12  BANK13
      Params:         0       0       0       0       0       0       0       0       0       0       0       0       0       0       0
      Locals:         0      16       0       0       0       0       0       0       0       0       0       0       0       0       0
      Temps:          0       6       0       0       0       0       0       0       0       0       0       0       0       0       0
      Totals:         0      22       0       0       0       0       0       0       0       0       0       0       0       0       0
Total ram usage:       22 bytes
 Hardware stack levels used:    1
 Hardware stack levels required when called:   12
 This function calls:
		_commandResponse
 This function is called by:
		_programRetryChecks
		_programUIDs
 This function uses a non-reentrant model


 *************** function _EDD_Calibrate *****************
 Defined at:
		line 359 in file "eddComms.c"
 Parameters:    Size  Location     Type
		None
 Auto vars:     Size  Location     Type
  EDD_calibrat    1   10[BANK0 ] unsigned char 
 Return value:  Size  Location     Type
                  1    wreg      void 
 Registers used:
		wreg, status,2, status,0, cstack
 Tracked objects:
		On entry : 
		On exit  : 
		Unchanged: 
 Data sizes:     COMRAM   BANK0   BANK1   BANK2   BANK3   BANK4   BANK5   BANK6   BANK7   BANK8   BANK9  BANK10  BANK11  BANK12  BANK13
      Params:         0       0       0       0       0       0       0       0       0       0       0       0       0       0       0
      Locals:         0       1       0       0       0       0       0       0       0       0       0       0       0       0       0
      Temps:          0       0       0       0       0       0       0       0       0       0       0       0       0       0       0
      Totals:         0       1       0       0       0       0       0       0       0       0       0       0       0       0       0
Total ram usage:        1 bytes
 Hardware stack levels used:    1
 Hardware stack levels required when called:   11
 This function calls:
		_Delay_ms
		_Set_Line_High
		_Tx_Calibration_Pulses
		_Tx_Word
 This function is called by:
		_programUIDs
		_fireUIDs
 This function uses a non-reentrant model


 *************** function _Tx_Calibration_Pulses *****************
 Defined at:
		line 371 in file "eddComms.c"
 Parameters:    Size  Location     Type
		None
 Auto vars:     Size  Location     Type
  j               2    4[BANK0 ] int 
  j               2    2[BANK0 ] int 
  i               2    0[BANK0 ] int 
 Return value:  Size  Location     Type
                  1    wreg      void 
 Registers used:
		wreg, status,2, status,0, cstack
 Tracked objects:
		On entry : 
		On exit  : 
		Unchanged: 
 Data sizes:     COMRAM   BANK0   BANK1   BANK2   BANK3   BANK4   BANK5   BANK6   BANK7   BANK8   BANK9  BANK10  BANK11  BANK12  BANK13
      Params:         0       0       0       0       0       0       0       0       0       0       0       0       0       0       0
      Locals:         0       6       0       0       0       0       0       0       0       0       0       0       0       0       0
      Temps:          0       0       0       0       0       0       0       0       0       0       0       0       0       0       0
      Totals:         0       6       0       0       0       0       0       0       0       0       0       0       0       0       0
Total ram usage:        6 bytes
 Hardware stack levels used:    1
 Hardware stack levels required when called:    9
 This function calls:
		_Delay_100us
		_Set_Line_High
		_Set_Line_Low
 This function is called by:
		_EDD_Calibrate
 This function uses a non-reentrant model


 *************** function _checkForUnfiredEdds *****************
 Defined at:
		line 87 in file "fire.c"
 Parameters:    Size  Location     Type
		None
 Auto vars:     Size  Location     Type
  i               2   34[BANK0 ] int 
 Return value:  Size  Location     Type
                  1    wreg      void 
 Registers used:
		wreg, fsr2l, fsr2h, status,2, status,0, cstack
 Tracked objects:
		On entry : 
		On exit  : 
		Unchanged: 
 Data sizes:     COMRAM   BANK0   BANK1   BANK2   BANK3   BANK4   BANK5   BANK6   BANK7   BANK8   BANK9  BANK10  BANK11  BANK12  BANK13
      Params:         0       0       0       0       0       0       0       0       0       0       0       0       0       0       0
      Locals:         0       2       0       0       0       0       0       0       0       0       0       0       0       0       0
      Temps:          0       6       0       0       0       0       0       0       0       0       0       0       0       0       0
      Totals:         0       8       0       0       0       0       0       0       0       0       0       0       0       0       0
Total ram usage:        8 bytes
 Hardware stack levels used:    1
 Hardware stack levels required when called:   13
 This function calls:
		_Set_Line_High
		_Set_Line_Low
		__delay_ms
		_checkLineForConnectedUIDs
 This function is called by:
		_fire
		_firePic
 This function uses a non-reentrant model


 *************** function _checkLineForConnectedUIDs *****************
 Defined at:
		line 343 in file "eddComms.c"
 Parameters:    Size  Location     Type
		None
 Auto vars:     Size  Location     Type
  txPacket        5   22[BANK0 ] unsigned char [5]
  attempts        1   27[BANK0 ] unsigned char 
 Return value:  Size  Location     Type
                  1    wreg      unsigned char 
 Registers used:
		wreg, fsr2l, fsr2h, status,2, status,0, cstack
 Tracked objects:
		On entry : 
		On exit  : 
		Unchanged: 
 Data sizes:     COMRAM   BANK0   BANK1   BANK2   BANK3   BANK4   BANK5   BANK6   BANK7   BANK8   BANK9  BANK10  BANK11  BANK12  BANK13
      Params:         0       0       0       0       0       0       0       0       0       0       0       0       0       0       0
      Locals:         0       6       0       0       0       0       0       0       0       0       0       0       0       0       0
      Temps:          0       1       0       0       0       0       0       0       0       0       0       0       0       0       0
      Totals:         0       7       0       0       0       0       0       0       0       0       0       0       0       0       0
Total ram usage:        7 bytes
 Hardware stack levels used:    1
 Hardware stack levels required when called:   12
 This function calls:
		_commandResponse
 This function is called by:
		_programUIDs
		_checkForUnfiredEdds
 This function uses a non-reentrant model


 *************** function _commandResponse *****************
 Defined at:
		line 194 in file "eddComms.c"
 Parameters:    Size  Location     Type
  TxLength        1    wreg     unsigned char 
  RxLength        1   10[BANK0 ] unsigned char 
  data            2   11[BANK0 ] PTR unsigned char 
		 -> checkLineForConnectedUIDs@txPacket(5), selfCheckUID@txPacket(3), programUID@txPacket(9), readUID@txPacket(5), 
 Auto vars:     Size  Location     Type
  TxLength        1   16[BANK0 ] unsigned char 
  i               2   19[BANK0 ] int 
  i               2   17[BANK0 ] int 
 Return value:  Size  Location     Type
                  1    wreg      unsigned char 
 Registers used:
		wreg, fsr2l, fsr2h, status,2, status,0, cstack
 Tracked objects:
		On entry : 
		On exit  : 
		Unchanged: 
 Data sizes:     COMRAM   BANK0   BANK1   BANK2   BANK3   BANK4   BANK5   BANK6   BANK7   BANK8   BANK9  BANK10  BANK11  BANK12  BANK13
      Params:         0       3       0       0       0       0       0       0       0       0       0       0       0       0       0
      Locals:         0       5       0       0       0       0       0       0       0       0       0       0       0       0       0
      Temps:          0       3       0       0       0       0       0       0       0       0       0       0       0       0       0
      Totals:         0      11       0       0       0       0       0       0       0       0       0       0       0       0       0
Total ram usage:       11 bytes
 Hardware stack levels used:    1
 Hardware stack levels required when called:   11
 This function calls:
		_Delay_ms
		_Tx_Word
		_rxWordEDD
 This function is called by:
		_readUID
		_programUID
		_selfCheckUID
		_checkLineForConnectedUIDs
 This function uses a non-reentrant model


 *************** function _rxWordEDD *****************
 Defined at:
		line 156 in file "eddComms.c"
 Parameters:    Size  Location     Type
		None
 Auto vars:     Size  Location     Type
		None
 Return value:  Size  Location     Type
                  1    wreg      unsigned char 
 Registers used:
		wreg, status,2, status,0, cstack
 Tracked objects:
		On entry : 
		On exit  : 
		Unchanged: 
 Data sizes:     COMRAM   BANK0   BANK1   BANK2   BANK3   BANK4   BANK5   BANK6   BANK7   BANK8   BANK9  BANK10  BANK11  BANK12  BANK13
      Params:         0       0       0       0       0       0       0       0       0       0       0       0       0       0       0
      Locals:         0       0       0       0       0       0       0       0       0       0       0       0       0       0       0
      Temps:          0       0       0       0       0       0       0       0       0       0       0       0       0       0       0
      Totals:         0       0       0       0       0       0       0       0       0       0       0       0       0       0       0
Total ram usage:        0 bytes
 Hardware stack levels used:    1
 Hardware stack levels required when called:   10
 This function calls:
		_Delay_ms
		_detectFallingEdgeEDD
		_detectRisingEdgeEDD
 This function is called by:
		_commandResponse
 This function uses a non-reentrant model


 *************** function _detectRisingEdgeEDD *****************
 Defined at:
		line 424 in file "eddComms.c"
 Parameters:    Size  Location     Type
  change          1    wreg     unsigned char 
 Auto vars:     Size  Location     Type
  change          1    4[BANK0 ] unsigned char 
  currentADC      2    5[BANK0 ] volatile unsigned short 
 Return value:  Size  Location     Type
                  1    wreg      unsigned char 
 Registers used:
		wreg, status,2, status,0, cstack
 Tracked objects:
		On entry : 
		On exit  : 
		Unchanged: 
 Data sizes:     COMRAM   BANK0   BANK1   BANK2   BANK3   BANK4   BANK5   BANK6   BANK7   BANK8   BANK9  BANK10  BANK11  BANK12  BANK13
      Params:         0       0       0       0       0       0       0       0       0       0       0       0       0       0       0
      Locals:         0       3       0       0       0       0       0       0       0       0       0       0       0       0       0
      Temps:          0       2       0       0       0       0       0       0       0       0       0       0       0       0       0
      Totals:         0       5       0       0       0       0       0       0       0       0       0       0       0       0       0
Total ram usage:        5 bytes
 Hardware stack levels used:    1
 Hardware stack levels required when called:    9
 This function calls:
		_readEddADC
 This function is called by:
		_rxWordEDD
 This function uses a non-reentrant model


 *************** function _detectFallingEdgeEDD *****************
 Defined at:
		line 437 in file "eddComms.c"
 Parameters:    Size  Location     Type
  change          1    wreg     unsigned char 
 Auto vars:     Size  Location     Type
  change          1    4[BANK0 ] unsigned char 
  currentADC      2    5[BANK0 ] volatile unsigned short 
 Return value:  Size  Location     Type
                  1    wreg      unsigned char 
 Registers used:
		wreg, status,2, status,0, cstack
 Tracked objects:
		On entry : 
		On exit  : 
		Unchanged: 
 Data sizes:     COMRAM   BANK0   BANK1   BANK2   BANK3   BANK4   BANK5   BANK6   BANK7   BANK8   BANK9  BANK10  BANK11  BANK12  BANK13
      Params:         0       0       0       0       0       0       0       0       0       0       0       0       0       0       0
      Locals:         0       3       0       0       0       0       0       0       0       0       0       0       0       0       0
      Temps:          0       2       0       0       0       0       0       0       0       0       0       0       0       0       0
      Totals:         0       5       0       0       0       0       0       0       0       0       0       0       0       0       0
Total ram usage:        5 bytes
 Hardware stack levels used:    1
 Hardware stack levels required when called:    9
 This function calls:
		_readEddADC
 This function is called by:
		_rxWordEDD
 This function uses a non-reentrant model


 *************** function _readEddADC *****************
 Defined at:
		line 451 in file "eddComms.c"
 Parameters:    Size  Location     Type
		None
 Auto vars:     Size  Location     Type
		None
 Return value:  Size  Location     Type
                  2    0[BANK0 ] unsigned short 
 Registers used:
		wreg, status,2
 Tracked objects:
		On entry : 
		On exit  : 
		Unchanged: 
 Data sizes:     COMRAM   BANK0   BANK1   BANK2   BANK3   BANK4   BANK5   BANK6   BANK7   BANK8   BANK9  BANK10  BANK11  BANK12  BANK13
      Params:         0       2       0       0       0       0       0       0       0       0       0       0       0       0       0
      Locals:         0       0       0       0       0       0       0       0       0       0       0       0       0       0       0
      Temps:          0       0       0       0       0       0       0       0       0       0       0       0       0       0       0
      Totals:         0       2       0       0       0       0       0       0       0       0       0       0       0       0       0
Total ram usage:        2 bytes
 Hardware stack levels used:    1
 Hardware stack levels required when called:    8
 This function calls:
		Nothing
 This function is called by:
		_detectRisingEdgeEDD
		_detectFallingEdgeEDD
 This function uses a non-reentrant model


 *************** function __delay_ms *****************
 Defined at:
		line 139 in file "peripherals.c"
 Parameters:    Size  Location     Type
  delay           2    1[BANK0 ] unsigned int 
 Auto vars:     Size  Location     Type
  i               2    3[BANK0 ] int 
 Return value:  Size  Location     Type
                  1    wreg      void 
 Registers used:
		wreg, status,2, status,0, cstack
 Tracked objects:
		On entry : 
		On exit  : 
		Unchanged: 
 Data sizes:     COMRAM   BANK0   BANK1   BANK2   BANK3   BANK4   BANK5   BANK6   BANK7   BANK8   BANK9  BANK10  BANK11  BANK12  BANK13
      Params:         0       2       0       0       0       0       0       0       0       0       0       0       0       0       0
      Locals:         0       2       0       0       0       0       0       0       0       0       0       0       0       0       0
      Temps:          0       0       0       0       0       0       0       0       0       0       0       0       0       0       0
      Totals:         0       4       0       0       0       0       0       0       0       0       0       0       0       0       0
Total ram usage:        4 bytes
 Hardware stack levels used:    1
 Hardware stack levels required when called:    9
 This function calls:
		__delay_us
 This function is called by:
		_WriteConfigST7540
		_prepareForProgramming
		_programUIDs
		_fire
		_checkForUnfiredEdds
		_sleep
		_mainsSleep
		_mainsWake
		_firePic
 This function uses a non-reentrant model


 *************** function _Set_Line_Low *****************
 Defined at:
		line 113 in file "eddComms.c"
 Parameters:    Size  Location     Type
		None
 Auto vars:     Size  Location     Type
		None
 Return value:  Size  Location     Type
                  1    wreg      void 
 Registers used:
		None
 Tracked objects:
		On entry : 
		On exit  : 
		Unchanged: 
 Data sizes:     COMRAM   BANK0   BANK1   BANK2   BANK3   BANK4   BANK5   BANK6   BANK7   BANK8   BANK9  BANK10  BANK11  BANK12  BANK13
      Params:         0       0       0       0       0       0       0       0       0       0       0       0       0       0       0
      Locals:         0       0       0       0       0       0       0       0       0       0       0       0       0       0       0
      Temps:          0       0       0       0       0       0       0       0       0       0       0       0       0       0       0
      Totals:         0       0       0       0       0       0       0       0       0       0       0       0       0       0       0
Total ram usage:        0 bytes
 Hardware stack levels used:    1
 Hardware stack levels required when called:    8
 This function calls:
		Nothing
 This function is called by:
		_Tx_Calibration_Pulses
		_returnFromProgramming
		_checkForUnfiredEdds
		_sleep
		_mainsSleep
 This function uses a non-reentrant model


 *************** function _EDD_Init_Comms *****************
 Defined at:
		line 87 in file "eddComms.c"
 Parameters:    Size  Location     Type
		None
 Auto vars:     Size  Location     Type
		None
 Return value:  Size  Location     Type
                  1    wreg      void 
 Registers used:
		wreg, status,2, cstack
 Tracked objects:
		On entry : 
		On exit  : 
		Unchanged: 
 Data sizes:     COMRAM   BANK0   BANK1   BANK2   BANK3   BANK4   BANK5   BANK6   BANK7   BANK8   BANK9  BANK10  BANK11  BANK12  BANK13
      Params:         0       0       0       0       0       0       0       0       0       0       0       0       0       0       0
      Locals:         0       0       0       0       0       0       0       0       0       0       0       0       0       0       0
      Temps:          0       0       0       0       0       0       0       0       0       0       0       0       0       0       0
      Totals:         0       0       0       0       0       0       0       0       0       0       0       0       0       0       0
Total ram usage:        0 bytes
 Hardware stack levels used:    1
 Hardware stack levels required when called:    9
 This function calls:
		_Set_Line_High
		_initialiseEddADC
 This function is called by:
		_programInitialise
		_fire
 This function uses a non-reentrant model


 *************** function _initialiseEddADC *****************
 Defined at:
		line 97 in file "eddComms.c"
 Parameters:    Size  Location     Type
		None
 Auto vars:     Size  Location     Type
		None
 Return value:  Size  Location     Type
                  1    wreg      void 
 Registers used:
		wreg, status,2
 Tracked objects:
		On entry : 
		On exit  : 
		Unchanged: 
 Data sizes:     COMRAM   BANK0   BANK1   BANK2   BANK3   BANK4   BANK5   BANK6   BANK7   BANK8   BANK9  BANK10  BANK11  BANK12  BANK13
      Params:         0       0       0       0       0       0       0       0       0       0       0       0       0       0       0
      Locals:         0       0       0       0       0       0       0       0       0       0       0       0       0       0       0
      Temps:          0       0       0       0       0       0       0       0       0       0       0       0       0       0       0
      Totals:         0       0       0       0       0       0       0       0       0       0       0       0       0       0       0
Total ram usage:        0 bytes
 Hardware stack levels used:    1
 Hardware stack levels required when called:    8
 This function calls:
		Nothing
 This function is called by:
		_EDD_Init_Comms
 This function uses a non-reentrant model


 *************** function _EDD_Energy_Store *****************
 Defined at:
		line 387 in file "eddComms.c"
 Parameters:    Size  Location     Type
		None
 Auto vars:     Size  Location     Type
  EDD_energy_s    1   10[BANK0 ] unsigned char 
 Return value:  Size  Location     Type
                  1    wreg      void 
 Registers used:
		wreg, status,2, status,0, cstack
 Tracked objects:
		On entry : 
		On exit  : 
		Unchanged: 
 Data sizes:     COMRAM   BANK0   BANK1   BANK2   BANK3   BANK4   BANK5   BANK6   BANK7   BANK8   BANK9  BANK10  BANK11  BANK12  BANK13
      Params:         0       0       0       0       0       0       0       0       0       0       0       0       0       0       0
      Locals:         0       1       0       0       0       0       0       0       0       0       0       0       0       0       0
      Temps:          0       0       0       0       0       0       0       0       0       0       0       0       0       0       0
      Totals:         0       1       0       0       0       0       0       0       0       0       0       0       0       0       0
Total ram usage:        1 bytes
 Hardware stack levels used:    1
 Hardware stack levels required when called:   11
 This function calls:
		_Delay_ms
		_Tx_Word
 This function is called by:
		_fire
		_firePic
 This function uses a non-reentrant model


 *************** function _EDD_Blast *****************
 Defined at:
		line 398 in file "eddComms.c"
 Parameters:    Size  Location     Type
		None
 Auto vars:     Size  Location     Type
  EDD_blast_co    1   10[BANK0 ] unsigned char 
 Return value:  Size  Location     Type
                  1    wreg      void 
 Registers used:
		wreg, status,2, status,0, cstack
 Tracked objects:
		On entry : 
		On exit  : 
		Unchanged: 
 Data sizes:     COMRAM   BANK0   BANK1   BANK2   BANK3   BANK4   BANK5   BANK6   BANK7   BANK8   BANK9  BANK10  BANK11  BANK12  BANK13
      Params:         0       0       0       0       0       0       0       0       0       0       0       0       0       0       0
      Locals:         0       1       0       0       0       0       0       0       0       0       0       0       0       0       0
      Temps:          0       0       0       0       0       0       0       0       0       0       0       0       0       0       0
      Totals:         0       1       0       0       0       0       0       0       0       0       0       0       0       0       0
Total ram usage:        1 bytes
 Hardware stack levels used:    1
 Hardware stack levels required when called:   11
 This function calls:
		_Delay_ms
		_Tx_Word
 This function is called by:
		_fire
 This function uses a non-reentrant model


 *************** function _Tx_Word *****************
 Defined at:
		line 135 in file "eddComms.c"
 Parameters:    Size  Location     Type
  byte            1    wreg     unsigned char 
 Auto vars:     Size  Location     Type
  byte            1    9[BANK0 ] unsigned char 
  bit_pos         2    7[BANK0 ] int 
 Return value:  Size  Location     Type
                  1    wreg      void 
 Registers used:
		wreg, status,2, status,0, cstack
 Tracked objects:
		On entry : 
		On exit  : 
		Unchanged: 
 Data sizes:     COMRAM   BANK0   BANK1   BANK2   BANK3   BANK4   BANK5   BANK6   BANK7   BANK8   BANK9  BANK10  BANK11  BANK12  BANK13
      Params:         0       0       0       0       0       0       0       0       0       0       0       0       0       0       0
      Locals:         0       3       0       0       0       0       0       0       0       0       0       0       0       0       0
      Temps:          0       0       0       0       0       0       0       0       0       0       0       0       0       0       0
      Totals:         0       3       0       0       0       0       0       0       0       0       0       0       0       0       0
Total ram usage:        3 bytes
 Hardware stack levels used:    1
 Hardware stack levels required when called:   10
 This function calls:
		_Delay_500us
		_Delay_ms
		_Set_Line_High
		_Tx_0
		_Tx_1
 This function is called by:
		_commandResponse
		_EDD_Calibrate
		_EDD_Energy_Store
		_EDD_Blast
		_EDD_Discharge
 This function uses a non-reentrant model


 *************** function _Tx_1 *****************
 Defined at:
		line 118 in file "eddComms.c"
 Parameters:    Size  Location     Type
		None
 Auto vars:     Size  Location     Type
		None
 Return value:  Size  Location     Type
                  1    wreg      void 
 Registers used:
		wreg, status,2, cstack
 Tracked objects:
		On entry : 
		On exit  : 
		Unchanged: 
 Data sizes:     COMRAM   BANK0   BANK1   BANK2   BANK3   BANK4   BANK5   BANK6   BANK7   BANK8   BANK9  BANK10  BANK11  BANK12  BANK13
      Params:         0       0       0       0       0       0       0       0       0       0       0       0       0       0       0
      Locals:         0       0       0       0       0       0       0       0       0       0       0       0       0       0       0
      Temps:          0       0       0       0       0       0       0       0       0       0       0       0       0       0       0
      Totals:         0       0       0       0       0       0       0       0       0       0       0       0       0       0       0
Total ram usage:        0 bytes
 Hardware stack levels used:    1
 Hardware stack levels required when called:    9
 This function calls:
		_Delay_500us
		_Delay_500us_X
 This function is called by:
		_Tx_Word
 This function uses a non-reentrant model


 *************** function _Tx_0 *****************
 Defined at:
		line 126 in file "eddComms.c"
 Parameters:    Size  Location     Type
		None
 Auto vars:     Size  Location     Type
		None
 Return value:  Size  Location     Type
                  1    wreg      void 
 Registers used:
		wreg, status,2, cstack
 Tracked objects:
		On entry : 
		On exit  : 
		Unchanged: 
 Data sizes:     COMRAM   BANK0   BANK1   BANK2   BANK3   BANK4   BANK5   BANK6   BANK7   BANK8   BANK9  BANK10  BANK11  BANK12  BANK13
      Params:         0       0       0       0       0       0       0       0       0       0       0       0       0       0       0
      Locals:         0       0       0       0       0       0       0       0       0       0       0       0       0       0       0
      Temps:          0       0       0       0       0       0       0       0       0       0       0       0       0       0       0
      Totals:         0       0       0       0       0       0       0       0       0       0       0       0       0       0       0
Total ram usage:        0 bytes
 Hardware stack levels used:    1
 Hardware stack levels required when called:    9
 This function calls:
		_Delay_500us
		_Delay_500us_X
 This function is called by:
		_Tx_Word
 This function uses a non-reentrant model


 *************** function _Delay_500us_X *****************
 Defined at:
		line 110 in file "peripherals.c"
 Parameters:    Size  Location     Type
		None
 Auto vars:     Size  Location     Type
		None
 Return value:  Size  Location     Type
                  1    wreg      void 
 Registers used:
		wreg, status,2
 Tracked objects:
		On entry : 
		On exit  : 
		Unchanged: 
 Data sizes:     COMRAM   BANK0   BANK1   BANK2   BANK3   BANK4   BANK5   BANK6   BANK7   BANK8   BANK9  BANK10  BANK11  BANK12  BANK13
      Params:         0       0       0       0       0       0       0       0       0       0       0       0       0       0       0
      Locals:         0       0       0       0       0       0       0       0       0       0       0       0       0       0       0
      Temps:          0       0       0       0       0       0       0       0       0       0       0       0       0       0       0
      Totals:         0       0       0       0       0       0       0       0       0       0       0       0       0       0       0
Total ram usage:        0 bytes
 Hardware stack levels used:    1
 Hardware stack levels required when called:    8
 This function calls:
		Nothing
 This function is called by:
		_Tx_1
		_Tx_0
 This function uses a non-reentrant model


 *************** function _Delay_500us *****************
 Defined at:
		line 104 in file "peripherals.c"
 Parameters:    Size  Location     Type
		None
 Auto vars:     Size  Location     Type
		None
 Return value:  Size  Location     Type
                  1    wreg      void 
 Registers used:
		wreg, status,2
 Tracked objects:
		On entry : 
		On exit  : 
		Unchanged: 
 Data sizes:     COMRAM   BANK0   BANK1   BANK2   BANK3   BANK4   BANK5   BANK6   BANK7   BANK8   BANK9  BANK10  BANK11  BANK12  BANK13
      Params:         0       0       0       0       0       0       0       0       0       0       0       0       0       0       0
      Locals:         0       0       0       0       0       0       0       0       0       0       0       0       0       0       0
      Temps:          0       0       0       0       0       0       0       0       0       0       0       0       0       0       0
      Totals:         0       0       0       0       0       0       0       0       0       0       0       0       0       0       0
Total ram usage:        0 bytes
 Hardware stack levels used:    1
 Hardware stack levels required when called:    8
 This function calls:
		Nothing
 This function is called by:
		_Tx_1
		_Tx_0
		_Tx_Word
 This function uses a non-reentrant model


 *************** function _Set_Line_High *****************
 Defined at:
		line 109 in file "eddComms.c"
 Parameters:    Size  Location     Type
		None
 Auto vars:     Size  Location     Type
		None
 Return value:  Size  Location     Type
                  1    wreg      void 
 Registers used:
		None
 Tracked objects:
		On entry : 
		On exit  : 
		Unchanged: 
 Data sizes:     COMRAM   BANK0   BANK1   BANK2   BANK3   BANK4   BANK5   BANK6   BANK7   BANK8   BANK9  BANK10  BANK11  BANK12  BANK13
      Params:         0       0       0       0       0       0       0       0       0       0       0       0       0       0       0
      Locals:         0       0       0       0       0       0       0       0       0       0       0       0       0       0       0
      Temps:          0       0       0       0       0       0       0       0       0       0       0       0       0       0       0
      Totals:         0       0       0       0       0       0       0       0       0       0       0       0       0       0       0
Total ram usage:        0 bytes
 Hardware stack levels used:    1
 Hardware stack levels required when called:    8
 This function calls:
		Nothing
 This function is called by:
		_EDD_Init_Comms
		_Tx_Word
		_EDD_Calibrate
		_Tx_Calibration_Pulses
		_prepareForProgramming
		_checkForUnfiredEdds
 This function uses a non-reentrant model


 *************** function _Delay_ms *****************
 Defined at:
		line 94 in file "peripherals.c"
 Parameters:    Size  Location     Type
  ms              2    0[BANK0 ] int 
 Auto vars:     Size  Location     Type
  j               2    5[BANK0 ] int 
  i               2    3[BANK0 ] int 
 Return value:  Size  Location     Type
                  1    wreg      void 
 Registers used:
		wreg, status,2, status,0, cstack
 Tracked objects:
		On entry : 
		On exit  : 
		Unchanged: 
 Data sizes:     COMRAM   BANK0   BANK1   BANK2   BANK3   BANK4   BANK5   BANK6   BANK7   BANK8   BANK9  BANK10  BANK11  BANK12  BANK13
      Params:         0       2       0       0       0       0       0       0       0       0       0       0       0       0       0
      Locals:         0       4       0       0       0       0       0       0       0       0       0       0       0       0       0
      Temps:          0       1       0       0       0       0       0       0       0       0       0       0       0       0       0
      Totals:         0       7       0       0       0       0       0       0       0       0       0       0       0       0       0
Total ram usage:        7 bytes
 Hardware stack levels used:    1
 Hardware stack levels required when called:    9
 This function calls:
		_Delay_100us
 This function is called by:
		_Tx_Word
		_rxWordEDD
		_commandResponse
		_EDD_Calibrate
		_EDD_Energy_Store
		_EDD_Blast
		_EDD_Discharge
 This function uses a non-reentrant model


 *************** function _Delay_100us *****************
 Defined at:
		line 117 in file "peripherals.c"
 Parameters:    Size  Location     Type
		None
 Auto vars:     Size  Location     Type
		None
 Return value:  Size  Location     Type
                  1    wreg      void 
 Registers used:
		None
 Tracked objects:
		On entry : 
		On exit  : 
		Unchanged: 
 Data sizes:     COMRAM   BANK0   BANK1   BANK2   BANK3   BANK4   BANK5   BANK6   BANK7   BANK8   BANK9  BANK10  BANK11  BANK12  BANK13
      Params:         0       0       0       0       0       0       0       0       0       0       0       0       0       0       0
      Locals:         0       0       0       0       0       0       0       0       0       0       0       0       0       0       0
      Temps:          0       0       0       0       0       0       0       0       0       0       0       0       0       0       0
      Totals:         0       0       0       0       0       0       0       0       0       0       0       0       0       0       0
Total ram usage:        0 bytes
 Hardware stack levels used:    1
 Hardware stack levels required when called:    8
 This function calls:
		Nothing
 This function is called by:
		_Delay_ms
		_Tx_Calibration_Pulses
 This function uses a non-reentrant model


 *************** function _disengageRelay *****************
 Defined at:
		line 219 in file "shaftTest.c"
 Parameters:    Size  Location     Type
		None
 Auto vars:     Size  Location     Type
		None
 Return value:  Size  Location     Type
                  1    wreg      void 
 Registers used:
		None
 Tracked objects:
		On entry : 
		On exit  : 
		Unchanged: 
 Data sizes:     COMRAM   BANK0   BANK1   BANK2   BANK3   BANK4   BANK5   BANK6   BANK7   BANK8   BANK9  BANK10  BANK11  BANK12  BANK13
      Params:         0       0       0       0       0       0       0       0       0       0       0       0       0       0       0
      Locals:         0       0       0       0       0       0       0       0       0       0       0       0       0       0       0
      Temps:          0       0       0       0       0       0       0       0       0       0       0       0       0       0       0
      Totals:         0       0       0       0       0       0       0       0       0       0       0       0       0       0       0
Total ram usage:        0 bytes
 Hardware stack levels used:    1
 Hardware stack levels required when called:    8
 This function calls:
		Nothing
 This function is called by:
		_device
 This function uses a non-reentrant model


 *************** function _currentStateHandler *****************
 Defined at:
		line 45 in file "currentStateHandler.c"
 Parameters:    Size  Location     Type
		None
 Auto vars:     Size  Location     Type
  i               2    0[BANK1 ] int 
 Return value:  Size  Location     Type
                  1    wreg      void 
 Registers used:
		wreg, fsr1l, fsr1h, fsr2l, fsr2h, status,2, status,0, prodl, prodh, cstack
 Tracked objects:
		On entry : 
		On exit  : 
		Unchanged: 
 Data sizes:     COMRAM   BANK0   BANK1   BANK2   BANK3   BANK4   BANK5   BANK6   BANK7   BANK8   BANK9  BANK10  BANK11  BANK12  BANK13
      Params:         0       0       0       0       0       0       0       0       0       0       0       0       0       0       0
      Locals:         0       0       2       0       0       0       0       0       0       0       0       0       0       0       0
      Temps:          0       3       0       0       0       0       0       0       0       0       0       0       0       0       0
      Totals:         0       3       2       0       0       0       0       0       0       0       0       0       0       0       0
Total ram usage:        5 bytes
 Hardware stack levels used:    1
 Hardware stack levels required when called:   14
 This function calls:
		_bluetooth
		_bluetoothStateHandler
		_incomingCommands
		_incomingCommandsStateHandler
		_led
		_ledStateHandler
		_outgoingMessages
		_outgoingMessagesStateHandler
		_readKeyCable
		_readKeyCableStateHandler
		_readSupply
		_readSupplyStateHandler
		_shaftTest
		_shaftTestStateHandler
 This function is called by:
		_device
 This function uses a non-reentrant model


 *************** function _shaftTestStateHandler *****************
 Defined at:
		line 100 in file "shaftTest.c"
 Parameters:    Size  Location     Type
		None
 Auto vars:     Size  Location     Type
		None
 Return value:  Size  Location     Type
                  1    wreg      void 
 Registers used:
		wreg, fsr1l, fsr1h, fsr2l, fsr2h, status,2, status,0, prodl, prodh, cstack
 Tracked objects:
		On entry : 
		On exit  : 
		Unchanged: 
 Data sizes:     COMRAM   BANK0   BANK1   BANK2   BANK3   BANK4   BANK5   BANK6   BANK7   BANK8   BANK9  BANK10  BANK11  BANK12  BANK13
      Params:         0       0       0       0       0       0       0       0       0       0       0       0       0       0       0
      Locals:         0       0       0       0       0       0       0       0       0       0       0       0       0       0       0
      Temps:          0       0       0       0       0       0       0       0       0       0       0       0       0       0       0
      Totals:         0       0       0       0       0       0       0       0       0       0       0       0       0       0       0
Total ram usage:        0 bytes
 Hardware stack levels used:    1
 Hardware stack levels required when called:   11
 This function calls:
		_readCableADC
		_readEarthADC
 This function is called by:
		_currentStateHandler
 This function uses a non-reentrant model


 *************** function _readEarthADC *****************
 Defined at:
		line 183 in file "shaftTest.c"
 Parameters:    Size  Location     Type
		None
 Auto vars:     Size  Location     Type
  ADCStore       10   38[BANK0 ] unsigned short [5]
  i               2   50[BANK0 ] int 
  currentVaria    2   48[BANK0 ] unsigned short 
 Return value:  Size  Location     Type
                  2   34[BANK0 ] unsigned short 
 Registers used:
		wreg, fsr1l, fsr1h, fsr2l, fsr2h, status,2, status,0, prodl, prodh, cstack
 Tracked objects:
		On entry : 
		On exit  : 
		Unchanged: 
 Data sizes:     COMRAM   BANK0   BANK1   BANK2   BANK3   BANK4   BANK5   BANK6   BANK7   BANK8   BANK9  BANK10  BANK11  BANK12  BANK13
      Params:         0       2       0       0       0       0       0       0       0       0       0       0       0       0       0
      Locals:         0      14       0       0       0       0       0       0       0       0       0       0       0       0       0
      Temps:          0       2       0       0       0       0       0       0       0       0       0       0       0       0       0
      Totals:         0      18       0       0       0       0       0       0       0       0       0       0       0       0       0
Total ram usage:       18 bytes
 Hardware stack levels used:    1
 Hardware stack levels required when called:   10
 This function calls:
		__delay_us
		_readEarthADCSetup
		_variance
 This function is called by:
		_shaftTestStateHandler
 This function uses a non-reentrant model


 *************** function _readEarthADCSetup *****************
 Defined at:
		line 170 in file "shaftTest.c"
 Parameters:    Size  Location     Type
		None
 Auto vars:     Size  Location     Type
		None
 Return value:  Size  Location     Type
                  1    wreg      void 
 Registers used:
		wreg, status,2, status,0, cstack
 Tracked objects:
		On entry : 
		On exit  : 
		Unchanged: 
 Data sizes:     COMRAM   BANK0   BANK1   BANK2   BANK3   BANK4   BANK5   BANK6   BANK7   BANK8   BANK9  BANK10  BANK11  BANK12  BANK13
      Params:         0       0       0       0       0       0       0       0       0       0       0       0       0       0       0
      Locals:         0       0       0       0       0       0       0       0       0       0       0       0       0       0       0
      Temps:          0       0       0       0       0       0       0       0       0       0       0       0       0       0       0
      Totals:         0       0       0       0       0       0       0       0       0       0       0       0       0       0       0
Total ram usage:        0 bytes
 Hardware stack levels used:    1
 Hardware stack levels required when called:    9
 This function calls:
		__delay_us
 This function is called by:
		_readEarthADC
 This function uses a non-reentrant model


 *************** function _readCableADC *****************
 Defined at:
		line 147 in file "shaftTest.c"
 Parameters:    Size  Location     Type
		None
 Auto vars:     Size  Location     Type
  ADCStore       10   38[BANK0 ] unsigned short [5]
  i               2   50[BANK0 ] int 
  currentVaria    2   48[BANK0 ] unsigned short 
 Return value:  Size  Location     Type
                  2   34[BANK0 ] unsigned short 
 Registers used:
		wreg, fsr1l, fsr1h, fsr2l, fsr2h, status,2, status,0, prodl, prodh, cstack
 Tracked objects:
		On entry : 
		On exit  : 
		Unchanged: 
 Data sizes:     COMRAM   BANK0   BANK1   BANK2   BANK3   BANK4   BANK5   BANK6   BANK7   BANK8   BANK9  BANK10  BANK11  BANK12  BANK13
      Params:         0       2       0       0       0       0       0       0       0       0       0       0       0       0       0
      Locals:         0      14       0       0       0       0       0       0       0       0       0       0       0       0       0
      Temps:          0       2       0       0       0       0       0       0       0       0       0       0       0       0       0
      Totals:         0      18       0       0       0       0       0       0       0       0       0       0       0       0       0
Total ram usage:       18 bytes
 Hardware stack levels used:    1
 Hardware stack levels required when called:   10
 This function calls:
		__delay_us
		_readCableADCSetup
		_variance
 This function is called by:
		_shaftTestStateHandler
 This function uses a non-reentrant model


 *************** function _readCableADCSetup *****************
 Defined at:
		line 206 in file "shaftTest.c"
 Parameters:    Size  Location     Type
		None
 Auto vars:     Size  Location     Type
		None
 Return value:  Size  Location     Type
                  1    wreg      void 
 Registers used:
		wreg, status,2, status,0, cstack
 Tracked objects:
		On entry : 
		On exit  : 
		Unchanged: 
 Data sizes:     COMRAM   BANK0   BANK1   BANK2   BANK3   BANK4   BANK5   BANK6   BANK7   BANK8   BANK9  BANK10  BANK11  BANK12  BANK13
      Params:         0       0       0       0       0       0       0       0       0       0       0       0       0       0       0
      Locals:         0       0       0       0       0       0       0       0       0       0       0       0       0       0       0
      Temps:          0       0       0       0       0       0       0       0       0       0       0       0       0       0       0
      Totals:         0       0       0       0       0       0       0       0       0       0       0       0       0       0       0
Total ram usage:        0 bytes
 Hardware stack levels used:    1
 Hardware stack levels required when called:    9
 This function calls:
		__delay_us
 This function is called by:
		_readCableADC
 This function uses a non-reentrant model


 *************** function _shaftTest *****************
 Defined at:
		line 44 in file "shaftTest.c"
 Parameters:    Size  Location     Type
		None
 Auto vars:     Size  Location     Type
		None
 Return value:  Size  Location     Type
                  1    wreg      void 
 Registers used:
		wreg, fsr2l, fsr2h, status,2, status,0
 Tracked objects:
		On entry : 
		On exit  : 
		Unchanged: 
 Data sizes:     COMRAM   BANK0   BANK1   BANK2   BANK3   BANK4   BANK5   BANK6   BANK7   BANK8   BANK9  BANK10  BANK11  BANK12  BANK13
      Params:         0       0       0       0       0       0       0       0       0       0       0       0       0       0       0
      Locals:         0       0       0       0       0       0       0       0       0       0       0       0       0       0       0
      Temps:          0       0       0       0       0       0       0       0       0       0       0       0       0       0       0
      Totals:         0       0       0       0       0       0       0       0       0       0       0       0       0       0       0
Total ram usage:        0 bytes
 Hardware stack levels used:    1
 Hardware stack levels required when called:    8
 This function calls:
		Nothing
 This function is called by:
		_currentStateHandler
 This function uses a non-reentrant model


 *************** function _readSupplyStateHandler *****************
 Defined at:
		line 78 in file "readSupply.c"
 Parameters:    Size  Location     Type
		None
 Auto vars:     Size  Location     Type
  batteryVolta    2   52[BANK0 ] unsigned short 
 Return value:  Size  Location     Type
                  1    wreg      void 
 Registers used:
		wreg, fsr1l, fsr1h, fsr2l, fsr2h, status,2, status,0, prodl, prodh, cstack
 Tracked objects:
		On entry : 
		On exit  : 
		Unchanged: 
 Data sizes:     COMRAM   BANK0   BANK1   BANK2   BANK3   BANK4   BANK5   BANK6   BANK7   BANK8   BANK9  BANK10  BANK11  BANK12  BANK13
      Params:         0       0       0       0       0       0       0       0       0       0       0       0       0       0       0
      Locals:         0       2       0       0       0       0       0       0       0       0       0       0       0       0       0
      Temps:          0       0       0       0       0       0       0       0       0       0       0       0       0       0       0
      Totals:         0       2       0       0       0       0       0       0       0       0       0       0       0       0       0
Total ram usage:        2 bytes
 Hardware stack levels used:    1
 Hardware stack levels required when called:   11
 This function calls:
		_readBatteryADC
		_readMainsInterval
 This function is called by:
		_currentStateHandler
 This function uses a non-reentrant model


 *************** function _readMainsInterval *****************
 Defined at:
		line 159 in file "readSupply.c"
 Parameters:    Size  Location     Type
		None
 Auto vars:     Size  Location     Type
  i               2    0[BANK0 ] int 
 Return value:  Size  Location     Type
                  1    wreg      unsigned char 
 Registers used:
		wreg, status,2, status,0
 Tracked objects:
		On entry : 
		On exit  : 
		Unchanged: 
 Data sizes:     COMRAM   BANK0   BANK1   BANK2   BANK3   BANK4   BANK5   BANK6   BANK7   BANK8   BANK9  BANK10  BANK11  BANK12  BANK13
      Params:         0       0       0       0       0       0       0       0       0       0       0       0       0       0       0
      Locals:         0       2       0       0       0       0       0       0       0       0       0       0       0       0       0
      Temps:          0       0       0       0       0       0       0       0       0       0       0       0       0       0       0
      Totals:         0       2       0       0       0       0       0       0       0       0       0       0       0       0       0
Total ram usage:        2 bytes
 Hardware stack levels used:    1
 Hardware stack levels required when called:    8
 This function calls:
		Nothing
 This function is called by:
		_readSupplyStateHandler
 This function uses a non-reentrant model


 *************** function _readBatteryADC *****************
 Defined at:
		line 124 in file "readSupply.c"
 Parameters:    Size  Location     Type
		None
 Auto vars:     Size  Location     Type
  ADCStore       10   38[BANK0 ] unsigned short [5]
  i               2   50[BANK0 ] int 
  currentVaria    2   48[BANK0 ] unsigned short 
 Return value:  Size  Location     Type
                  2   34[BANK0 ] unsigned short 
 Registers used:
		wreg, fsr1l, fsr1h, fsr2l, fsr2h, status,2, status,0, prodl, prodh, cstack
 Tracked objects:
		On entry : 
		On exit  : 
		Unchanged: 
 Data sizes:     COMRAM   BANK0   BANK1   BANK2   BANK3   BANK4   BANK5   BANK6   BANK7   BANK8   BANK9  BANK10  BANK11  BANK12  BANK13
      Params:         0       2       0       0       0       0       0       0       0       0       0       0       0       0       0
      Locals:         0      14       0       0       0       0       0       0       0       0       0       0       0       0       0
      Temps:          0       2       0       0       0       0       0       0       0       0       0       0       0       0       0
      Totals:         0      18       0       0       0       0       0       0       0       0       0       0       0       0       0
Total ram usage:       18 bytes
 Hardware stack levels used:    1
 Hardware stack levels required when called:   10
 This function calls:
		__delay_us
		_readBatteryADCSetup
		_variance
 This function is called by:
		_readSupplyStateHandler
 This function uses a non-reentrant model


 *************** function _readBatteryADCSetup *****************
 Defined at:
		line 146 in file "readSupply.c"
 Parameters:    Size  Location     Type
		None
 Auto vars:     Size  Location     Type
		None
 Return value:  Size  Location     Type
                  1    wreg      void 
 Registers used:
		wreg, status,2, status,0, cstack
 Tracked objects:
		On entry : 
		On exit  : 
		Unchanged: 
 Data sizes:     COMRAM   BANK0   BANK1   BANK2   BANK3   BANK4   BANK5   BANK6   BANK7   BANK8   BANK9  BANK10  BANK11  BANK12  BANK13
      Params:         0       0       0       0       0       0       0       0       0       0       0       0       0       0       0
      Locals:         0       0       0       0       0       0       0       0       0       0       0       0       0       0       0
      Temps:          0       0       0       0       0       0       0       0       0       0       0       0       0       0       0
      Totals:         0       0       0       0       0       0       0       0       0       0       0       0       0       0       0
Total ram usage:        0 bytes
 Hardware stack levels used:    1
 Hardware stack levels required when called:    9
 This function calls:
		__delay_us
 This function is called by:
		_readBatteryADC
 This function uses a non-reentrant model


 *************** function _readSupply *****************
 Defined at:
		line 30 in file "readSupply.c"
 Parameters:    Size  Location     Type
		None
 Auto vars:     Size  Location     Type
		None
 Return value:  Size  Location     Type
                  1    wreg      void 
 Registers used:
		wreg, fsr2l, fsr2h, status,2, status,0
 Tracked objects:
		On entry : 
		On exit  : 
		Unchanged: 
 Data sizes:     COMRAM   BANK0   BANK1   BANK2   BANK3   BANK4   BANK5   BANK6   BANK7   BANK8   BANK9  BANK10  BANK11  BANK12  BANK13
      Params:         0       0       0       0       0       0       0       0       0       0       0       0       0       0       0
      Locals:         0       0       0       0       0       0       0       0       0       0       0       0       0       0       0
      Temps:          0       0       0       0       0       0       0       0       0       0       0       0       0       0       0
      Totals:         0       0       0       0       0       0       0       0       0       0       0       0       0       0       0
Total ram usage:        0 bytes
 Hardware stack levels used:    1
 Hardware stack levels required when called:    8
 This function calls:
		Nothing
 This function is called by:
		_currentStateHandler
 This function uses a non-reentrant model


 *************** function _readKeyCableStateHandler *****************
 Defined at:
		line 74 in file "readKeyCable.c"
 Parameters:    Size  Location     Type
		None
 Auto vars:     Size  Location     Type
		None
 Return value:  Size  Location     Type
                  1    wreg      void 
 Registers used:
		wreg, fsr1l, fsr1h, fsr2l, fsr2h, status,2, status,0, prodl, prodh, cstack
 Tracked objects:
		On entry : 
		On exit  : 
		Unchanged: 
 Data sizes:     COMRAM   BANK0   BANK1   BANK2   BANK3   BANK4   BANK5   BANK6   BANK7   BANK8   BANK9  BANK10  BANK11  BANK12  BANK13
      Params:         0       0       0       0       0       0       0       0       0       0       0       0       0       0       0
      Locals:         0       0       0       0       0       0       0       0       0       0       0       0       0       0       0
      Temps:          0       0       0       0       0       0       0       0       0       0       0       0       0       0       0
      Totals:         0       0       0       0       0       0       0       0       0       0       0       0       0       0       0
Total ram usage:        0 bytes
 Hardware stack levels used:    1
 Hardware stack levels required when called:   11
 This function calls:
		_readEDDADC
		_readS1StateADC
 This function is called by:
		_currentStateHandler
 This function uses a non-reentrant model


 *************** function _readS1StateADC *****************
 Defined at:
		line 119 in file "readKeyCable.c"
 Parameters:    Size  Location     Type
		None
 Auto vars:     Size  Location     Type
  ADCStore       10   38[BANK0 ] unsigned short [5]
  i               2   50[BANK0 ] int 
  currentVaria    2   48[BANK0 ] unsigned short 
 Return value:  Size  Location     Type
                  2   34[BANK0 ] unsigned short 
 Registers used:
		wreg, fsr1l, fsr1h, fsr2l, fsr2h, status,2, status,0, prodl, prodh, cstack
 Tracked objects:
		On entry : 
		On exit  : 
		Unchanged: 
 Data sizes:     COMRAM   BANK0   BANK1   BANK2   BANK3   BANK4   BANK5   BANK6   BANK7   BANK8   BANK9  BANK10  BANK11  BANK12  BANK13
      Params:         0       2       0       0       0       0       0       0       0       0       0       0       0       0       0
      Locals:         0      14       0       0       0       0       0       0       0       0       0       0       0       0       0
      Temps:          0       2       0       0       0       0       0       0       0       0       0       0       0       0       0
      Totals:         0      18       0       0       0       0       0       0       0       0       0       0       0       0       0
Total ram usage:       18 bytes
 Hardware stack levels used:    1
 Hardware stack levels required when called:   10
 This function calls:
		__delay_us
		_readS1StateADCSetup
		_variance
 This function is called by:
		_readKeyCableStateHandler
 This function uses a non-reentrant model


 *************** function _readS1StateADCSetup *****************
 Defined at:
		line 176 in file "readKeyCable.c"
 Parameters:    Size  Location     Type
		None
 Auto vars:     Size  Location     Type
		None
 Return value:  Size  Location     Type
                  1    wreg      void 
 Registers used:
		wreg, status,2, status,0, cstack
 Tracked objects:
		On entry : 
		On exit  : 
		Unchanged: 
 Data sizes:     COMRAM   BANK0   BANK1   BANK2   BANK3   BANK4   BANK5   BANK6   BANK7   BANK8   BANK9  BANK10  BANK11  BANK12  BANK13
      Params:         0       0       0       0       0       0       0       0       0       0       0       0       0       0       0
      Locals:         0       0       0       0       0       0       0       0       0       0       0       0       0       0       0
      Temps:          0       0       0       0       0       0       0       0       0       0       0       0       0       0       0
      Totals:         0       0       0       0       0       0       0       0       0       0       0       0       0       0       0
Total ram usage:        0 bytes
 Hardware stack levels used:    1
 Hardware stack levels required when called:    9
 This function calls:
		__delay_us
 This function is called by:
		_readS1StateADC
 This function uses a non-reentrant model


 *************** function _readEDDADC *****************
 Defined at:
		line 141 in file "readKeyCable.c"
 Parameters:    Size  Location     Type
		None
 Auto vars:     Size  Location     Type
  ADCStore       10   38[BANK0 ] unsigned short [5]
  i               2   50[BANK0 ] int 
  currentVaria    2   48[BANK0 ] unsigned short 
 Return value:  Size  Location     Type
                  2   34[BANK0 ] unsigned short 
 Registers used:
		wreg, fsr1l, fsr1h, fsr2l, fsr2h, status,2, status,0, prodl, prodh, cstack
 Tracked objects:
		On entry : 
		On exit  : 
		Unchanged: 
 Data sizes:     COMRAM   BANK0   BANK1   BANK2   BANK3   BANK4   BANK5   BANK6   BANK7   BANK8   BANK9  BANK10  BANK11  BANK12  BANK13
      Params:         0       2       0       0       0       0       0       0       0       0       0       0       0       0       0
      Locals:         0      14       0       0       0       0       0       0       0       0       0       0       0       0       0
      Temps:          0       2       0       0       0       0       0       0       0       0       0       0       0       0       0
      Totals:         0      18       0       0       0       0       0       0       0       0       0       0       0       0       0
Total ram usage:       18 bytes
 Hardware stack levels used:    1
 Hardware stack levels required when called:   10
 This function calls:
		__delay_us
		_readEDDADCSetup
		_variance
 This function is called by:
		_readKeyCableStateHandler
 This function uses a non-reentrant model


 *************** function _variance *****************
 Defined at:
		line 173 in file "peripherals.c"
 Parameters:    Size  Location     Type
  values          2   13[BANK0 ] PTR unsigned short 
		 -> readEarthADC@ADCStore(10), readCableADC@ADCStore(10), readEDDADC@ADCStore(10), readS1StateADC@ADCStore(10), 
		 -> readBatteryADC@ADCStore(10), 
  sampleSize      1   15[BANK0 ] unsigned char 
 Auto vars:     Size  Location     Type
  i               2   32[BANK0 ] int 
  i               2   26[BANK0 ] int 
  sum             4   28[BANK0 ] unsigned long 
  mean            2   24[BANK0 ] unsigned short 
 Return value:  Size  Location     Type
                  2   13[BANK0 ] unsigned short 
 Registers used:
		wreg, fsr2l, fsr2h, status,2, status,0, prodl, prodh, cstack
 Tracked objects:
		On entry : 
		On exit  : 
		Unchanged: 
 Data sizes:     COMRAM   BANK0   BANK1   BANK2   BANK3   BANK4   BANK5   BANK6   BANK7   BANK8   BANK9  BANK10  BANK11  BANK12  BANK13
      Params:         0       3       0       0       0       0       0       0       0       0       0       0       0       0       0
      Locals:         0      10       0       0       0       0       0       0       0       0       0       0       0       0       0
      Temps:          0       8       0       0       0       0       0       0       0       0       0       0       0       0       0
      Totals:         0      21       0       0       0       0       0       0       0       0       0       0       0       0       0
Total ram usage:       21 bytes
 Hardware stack levels used:    1
 Hardware stack levels required when called:    9
 This function calls:
		___lldiv
		___wmul
 This function is called by:
		_readBatteryADC
		_readS1StateADC
		_readEDDADC
		_readCableADC
		_readEarthADC
 This function uses a non-reentrant model


 *************** function ___lldiv *****************
 Defined at:
		line 8 in file "C:\Program Files (x86)\Microchip\xc8\v1.41\sources\common\lldiv.c"
 Parameters:    Size  Location     Type
  dividend        4    0[BANK0 ] unsigned long 
  divisor         4    4[BANK0 ] unsigned long 
 Auto vars:     Size  Location     Type
  quotient        4    8[BANK0 ] unsigned long 
  counter         1   12[BANK0 ] unsigned char 
 Return value:  Size  Location     Type
                  4    0[BANK0 ] unsigned long 
 Registers used:
		wreg, status,2, status,0
 Tracked objects:
		On entry : 
		On exit  : 
		Unchanged: 
 Data sizes:     COMRAM   BANK0   BANK1   BANK2   BANK3   BANK4   BANK5   BANK6   BANK7   BANK8   BANK9  BANK10  BANK11  BANK12  BANK13
      Params:         0       8       0       0       0       0       0       0       0       0       0       0       0       0       0
      Locals:         0       5       0       0       0       0       0       0       0       0       0       0       0       0       0
      Temps:          0       0       0       0       0       0       0       0       0       0       0       0       0       0       0
      Totals:         0      13       0       0       0       0       0       0       0       0       0       0       0       0       0
Total ram usage:       13 bytes
 Hardware stack levels used:    1
 Hardware stack levels required when called:    8
 This function calls:
		Nothing
 This function is called by:
		_variance
 This function uses a non-reentrant model


 *************** function _readEDDADCSetup *****************
 Defined at:
		line 163 in file "readKeyCable.c"
 Parameters:    Size  Location     Type
		None
 Auto vars:     Size  Location     Type
		None
 Return value:  Size  Location     Type
                  1    wreg      void 
 Registers used:
		wreg, status,2, status,0, cstack
 Tracked objects:
		On entry : 
		On exit  : 
		Unchanged: 
 Data sizes:     COMRAM   BANK0   BANK1   BANK2   BANK3   BANK4   BANK5   BANK6   BANK7   BANK8   BANK9  BANK10  BANK11  BANK12  BANK13
      Params:         0       0       0       0       0       0       0       0       0       0       0       0       0       0       0
      Locals:         0       0       0       0       0       0       0       0       0       0       0       0       0       0       0
      Temps:          0       0       0       0       0       0       0       0       0       0       0       0       0       0       0
      Totals:         0       0       0       0       0       0       0       0       0       0       0       0       0       0       0
Total ram usage:        0 bytes
 Hardware stack levels used:    1
 Hardware stack levels required when called:    9
 This function calls:
		__delay_us
 This function is called by:
		_readEDDADC
 This function uses a non-reentrant model


 *************** function _readKeyCable *****************
 Defined at:
		line 35 in file "readKeyCable.c"
 Parameters:    Size  Location     Type
		None
 Auto vars:     Size  Location     Type
		None
 Return value:  Size  Location     Type
                  1    wreg      void 
 Registers used:
		wreg, fsr2l, fsr2h, status,2, status,0
 Tracked objects:
		On entry : 
		On exit  : 
		Unchanged: 
 Data sizes:     COMRAM   BANK0   BANK1   BANK2   BANK3   BANK4   BANK5   BANK6   BANK7   BANK8   BANK9  BANK10  BANK11  BANK12  BANK13
      Params:         0       0       0       0       0       0       0       0       0       0       0       0       0       0       0
      Locals:         0       0       0       0       0       0       0       0       0       0       0       0       0       0       0
      Temps:          0       0       0       0       0       0       0       0       0       0       0       0       0       0       0
      Totals:         0       0       0       0       0       0       0       0       0       0       0       0       0       0       0
Total ram usage:        0 bytes
 Hardware stack levels used:    1
 Hardware stack levels required when called:    8
 This function calls:
		Nothing
 This function is called by:
		_currentStateHandler
 This function uses a non-reentrant model


 *************** function _outgoingMessagesStateHandler *****************
 Defined at:
		line 64 in file "outgoingMessages.c"
 Parameters:    Size  Location     Type
		None
 Auto vars:     Size  Location     Type
		None
 Return value:  Size  Location     Type
                  1    wreg      void 
 Registers used:
		wreg, fsr2l, fsr2h, status,2, status,0, cstack
 Tracked objects:
		On entry : 
		On exit  : 
		Unchanged: 
 Data sizes:     COMRAM   BANK0   BANK1   BANK2   BANK3   BANK4   BANK5   BANK6   BANK7   BANK8   BANK9  BANK10  BANK11  BANK12  BANK13
      Params:         0       0       0       0       0       0       0       0       0       0       0       0       0       0       0
      Locals:         0       0       0       0       0       0       0       0       0       0       0       0       0       0       0
      Temps:          0       0       0       0       0       0       0       0       0       0       0       0       0       0       0
      Totals:         0       0       0       0       0       0       0       0       0       0       0       0       0       0       0
Total ram usage:        0 bytes
 Hardware stack levels used:    1
 Hardware stack levels required when called:    9
 This function calls:
		_LineIdleST7540
		_TransmitBusyST7540
 This function is called by:
		_currentStateHandler
 This function uses a non-reentrant model


 *************** function _TransmitBusyST7540 *****************
 Defined at:
		line 266 in file "ST7540.c"
 Parameters:    Size  Location     Type
		None
 Auto vars:     Size  Location     Type
		None
 Return value:  Size  Location     Type
                  1    wreg      unsigned char 
 Registers used:
		wreg, status,2, status,0
 Tracked objects:
		On entry : 
		On exit  : 
		Unchanged: 
 Data sizes:     COMRAM   BANK0   BANK1   BANK2   BANK3   BANK4   BANK5   BANK6   BANK7   BANK8   BANK9  BANK10  BANK11  BANK12  BANK13
      Params:         0       0       0       0       0       0       0       0       0       0       0       0       0       0       0
      Locals:         0       0       0       0       0       0       0       0       0       0       0       0       0       0       0
      Temps:          0       0       0       0       0       0       0       0       0       0       0       0       0       0       0
      Totals:         0       0       0       0       0       0       0       0       0       0       0       0       0       0       0
Total ram usage:        0 bytes
 Hardware stack levels used:    1
 Hardware stack levels required when called:    8
 This function calls:
		Nothing
 This function is called by:
		_outgoingMessagesStateHandler
 This function uses a non-reentrant model


 *************** function _LineIdleST7540 *****************
 Defined at:
		line 204 in file "ST7540.c"
 Parameters:    Size  Location     Type
		None
 Auto vars:     Size  Location     Type
		None
 Return value:  Size  Location     Type
                  1    wreg      unsigned char 
 Registers used:
		wreg
 Tracked objects:
		On entry : 
		On exit  : 
		Unchanged: 
 Data sizes:     COMRAM   BANK0   BANK1   BANK2   BANK3   BANK4   BANK5   BANK6   BANK7   BANK8   BANK9  BANK10  BANK11  BANK12  BANK13
      Params:         0       0       0       0       0       0       0       0       0       0       0       0       0       0       0
      Locals:         0       0       0       0       0       0       0       0       0       0       0       0       0       0       0
      Temps:          0       0       0       0       0       0       0       0       0       0       0       0       0       0       0
      Totals:         0       0       0       0       0       0       0       0       0       0       0       0       0       0       0
Total ram usage:        0 bytes
 Hardware stack levels used:    1
 Hardware stack levels required when called:    8
 This function calls:
		Nothing
 This function is called by:
		_outgoingMessagesStateHandler
 This function uses a non-reentrant model


 *************** function _outgoingMessages *****************
 Defined at:
		line 38 in file "outgoingMessages.c"
 Parameters:    Size  Location     Type
		None
 Auto vars:     Size  Location     Type
		None
 Return value:  Size  Location     Type
                  1    wreg      void 
 Registers used:
		wreg, fsr1l, fsr1h, fsr2l, fsr2h, status,2, status,0, prodl, prodh, cstack
 Tracked objects:
		On entry : 
		On exit  : 
		Unchanged: 
 Data sizes:     COMRAM   BANK0   BANK1   BANK2   BANK3   BANK4   BANK5   BANK6   BANK7   BANK8   BANK9  BANK10  BANK11  BANK12  BANK13
      Params:         0       0       0       0       0       0       0       0       0       0       0       0       0       0       0
      Locals:         0       0       0       0       0       0       0       0       0       0       0       0       0       0       0
      Temps:          0       0       0       0       0       0       0       0       0       0       0       0       0       0       0
      Totals:         0       0       0       0       0       0       0       0       0       0       0       0       0       0       0
Total ram usage:        0 bytes
 Hardware stack levels used:    1
 Hardware stack levels required when called:   10
 This function calls:
		_StartTransmitST7540
		_buildMessageST7540
 This function is called by:
		_currentStateHandler
 This function uses a non-reentrant model


 *************** function _buildMessageST7540 *****************
 Defined at:
		line 210 in file "ST7540.c"
 Parameters:    Size  Location     Type
		None
 Auto vars:     Size  Location     Type
  statusPtr       2   21[BANK0 ] PTR unsigned short 
		 -> ABB_1.info.statusBits(2), ABB_1.info(3), 
  packetCRCUS     2   23[BANK0 ] unsigned short 
  index           1   27[BANK0 ] unsigned char 
  dataBufLocUC    1   26[BANK0 ] unsigned char 
  dataOffset      1   25[BANK0 ] unsigned char 
 Return value:  Size  Location     Type
                  1    wreg      void 
 Registers used:
		wreg, fsr1l, fsr1h, fsr2l, fsr2h, status,2, status,0, prodl, prodh, cstack
 Tracked objects:
		On entry : 
		On exit  : 
		Unchanged: 
 Data sizes:     COMRAM   BANK0   BANK1   BANK2   BANK3   BANK4   BANK5   BANK6   BANK7   BANK8   BANK9  BANK10  BANK11  BANK12  BANK13
      Params:         0       0       0       0       0       0       0       0       0       0       0       0       0       0       0
      Locals:         0       7       0       0       0       0       0       0       0       0       0       0       0       0       0
      Temps:          0       8       0       0       0       0       0       0       0       0       0       0       0       0       0
      Totals:         0      15       0       0       0       0       0       0       0       0       0       0       0       0       0
Total ram usage:       15 bytes
 Hardware stack levels used:    1
 Hardware stack levels required when called:    9
 This function calls:
		_CRC16
 This function is called by:
		_outgoingMessages
 This function uses a non-reentrant model


 *************** function _StartTransmitST7540 *****************
 Defined at:
		line 254 in file "ST7540.c"
 Parameters:    Size  Location     Type
		None
 Auto vars:     Size  Location     Type
  discardUC       1    0[BANK0 ] unsigned char 
 Return value:  Size  Location     Type
                  1    wreg      void 
 Registers used:
		wreg, status,2, status,0
 Tracked objects:
		On entry : 
		On exit  : 
		Unchanged: 
 Data sizes:     COMRAM   BANK0   BANK1   BANK2   BANK3   BANK4   BANK5   BANK6   BANK7   BANK8   BANK9  BANK10  BANK11  BANK12  BANK13
      Params:         0       0       0       0       0       0       0       0       0       0       0       0       0       0       0
      Locals:         0       1       0       0       0       0       0       0       0       0       0       0       0       0       0
      Temps:          0       0       0       0       0       0       0       0       0       0       0       0       0       0       0
      Totals:         0       1       0       0       0       0       0       0       0       0       0       0       0       0       0
Total ram usage:        1 bytes
 Hardware stack levels used:    1
 Hardware stack levels required when called:    8
 This function calls:
		Nothing
 This function is called by:
		_outgoingMessages
 This function uses a non-reentrant model


 *************** function _ledStateHandler *****************
 Defined at:
		line 114 in file "led.c"
 Parameters:    Size  Location     Type
		None
 Auto vars:     Size  Location     Type
		None
 Return value:  Size  Location     Type
                  1    wreg      void 
 Registers used:
		wreg, fsr2l, fsr2h, status,2, status,0, cstack
 Tracked objects:
		On entry : 
		On exit  : 
		Unchanged: 
 Data sizes:     COMRAM   BANK0   BANK1   BANK2   BANK3   BANK4   BANK5   BANK6   BANK7   BANK8   BANK9  BANK10  BANK11  BANK12  BANK13
      Params:         0       0       0       0       0       0       0       0       0       0       0       0       0       0       0
      Locals:         0       0       0       0       0       0       0       0       0       0       0       0       0       0       0
      Temps:          0       0       0       0       0       0       0       0       0       0       0       0       0       0       0
      Totals:         0       0       0       0       0       0       0       0       0       0       0       0       0       0       0
Total ram usage:        0 bytes
 Hardware stack levels used:    1
 Hardware stack levels required when called:    9
 This function calls:
		_checkIfTagIsRemoved
 This function is called by:
		_currentStateHandler
 This function uses a non-reentrant model


 *************** function _checkIfTagIsRemoved *****************
 Defined at:
		line 651 in file "tagRead.c"
 Parameters:    Size  Location     Type
		None
 Auto vars:     Size  Location     Type
		None
 Return value:  Size  Location     Type
                  1    wreg      unsigned char 
 Registers used:
		wreg
 Tracked objects:
		On entry : 
		On exit  : 
		Unchanged: 
 Data sizes:     COMRAM   BANK0   BANK1   BANK2   BANK3   BANK4   BANK5   BANK6   BANK7   BANK8   BANK9  BANK10  BANK11  BANK12  BANK13
      Params:         0       0       0       0       0       0       0       0       0       0       0       0       0       0       0
      Locals:         0       0       0       0       0       0       0       0       0       0       0       0       0       0       0
      Temps:          0       0       0       0       0       0       0       0       0       0       0       0       0       0       0
      Totals:         0       0       0       0       0       0       0       0       0       0       0       0       0       0       0
Total ram usage:        0 bytes
 Hardware stack levels used:    1
 Hardware stack levels required when called:    8
 This function calls:
		Nothing
 This function is called by:
		_ledStateHandler
 This function uses a non-reentrant model


 *************** function _led *****************
 Defined at:
		line 33 in file "led.c"
 Parameters:    Size  Location     Type
		None
 Auto vars:     Size  Location     Type
		None
 Return value:  Size  Location     Type
                  1    wreg      void 
 Registers used:
		wreg, status,2, status,0, cstack
 Tracked objects:
		On entry : 
		On exit  : 
		Unchanged: 
 Data sizes:     COMRAM   BANK0   BANK1   BANK2   BANK3   BANK4   BANK5   BANK6   BANK7   BANK8   BANK9  BANK10  BANK11  BANK12  BANK13
      Params:         0       0       0       0       0       0       0       0       0       0       0       0       0       0       0
      Locals:         0       0       0       0       0       0       0       0       0       0       0       0       0       0       0
      Temps:          0       0       0       0       0       0       0       0       0       0       0       0       0       0       0
      Totals:         0       0       0       0       0       0       0       0       0       0       0       0       0       0       0
Total ram usage:        0 bytes
 Hardware stack levels used:    1
 Hardware stack levels required when called:    9
 This function calls:
		_setBlueLed
		_setGreenLed
		_setOffLed
		_setRedLed
 This function is called by:
		_currentStateHandler
 This function uses a non-reentrant model


 *************** function _setRedLed *****************
 Defined at:
		line 258 in file "led.c"
 Parameters:    Size  Location     Type
		None
 Auto vars:     Size  Location     Type
		None
 Return value:  Size  Location     Type
                  1    wreg      void 
 Registers used:
		None
 Tracked objects:
		On entry : 
		On exit  : 
		Unchanged: 
 Data sizes:     COMRAM   BANK0   BANK1   BANK2   BANK3   BANK4   BANK5   BANK6   BANK7   BANK8   BANK9  BANK10  BANK11  BANK12  BANK13
      Params:         0       0       0       0       0       0       0       0       0       0       0       0       0       0       0
      Locals:         0       0       0       0       0       0       0       0       0       0       0       0       0       0       0
      Temps:          0       0       0       0       0       0       0       0       0       0       0       0       0       0       0
      Totals:         0       0       0       0       0       0       0       0       0       0       0       0       0       0       0
Total ram usage:        0 bytes
 Hardware stack levels used:    1
 Hardware stack levels required when called:    8
 This function calls:
		Nothing
 This function is called by:
		_led
		_fire
		_firePic
 This function uses a non-reentrant model


 *************** function _setOffLed *****************
 Defined at:
		line 279 in file "led.c"
 Parameters:    Size  Location     Type
		None
 Auto vars:     Size  Location     Type
		None
 Return value:  Size  Location     Type
                  1    wreg      void 
 Registers used:
		None
 Tracked objects:
		On entry : 
		On exit  : 
		Unchanged: 
 Data sizes:     COMRAM   BANK0   BANK1   BANK2   BANK3   BANK4   BANK5   BANK6   BANK7   BANK8   BANK9  BANK10  BANK11  BANK12  BANK13
      Params:         0       0       0       0       0       0       0       0       0       0       0       0       0       0       0
      Locals:         0       0       0       0       0       0       0       0       0       0       0       0       0       0       0
      Temps:          0       0       0       0       0       0       0       0       0       0       0       0       0       0       0
      Totals:         0       0       0       0       0       0       0       0       0       0       0       0       0       0       0
Total ram usage:        0 bytes
 Hardware stack levels used:    1
 Hardware stack levels required when called:    8
 This function calls:
		Nothing
 This function is called by:
		_initialiseLed
		_led
		_program
		_sleep
		_mainsSleep
 This function uses a non-reentrant model


 *************** function _setGreenLed *****************
 Defined at:
		line 265 in file "led.c"
 Parameters:    Size  Location     Type
		None
 Auto vars:     Size  Location     Type
		None
 Return value:  Size  Location     Type
                  1    wreg      void 
 Registers used:
		None
 Tracked objects:
		On entry : 
		On exit  : 
		Unchanged: 
 Data sizes:     COMRAM   BANK0   BANK1   BANK2   BANK3   BANK4   BANK5   BANK6   BANK7   BANK8   BANK9  BANK10  BANK11  BANK12  BANK13
      Params:         0       0       0       0       0       0       0       0       0       0       0       0       0       0       0
      Locals:         0       0       0       0       0       0       0       0       0       0       0       0       0       0       0
      Temps:          0       0       0       0       0       0       0       0       0       0       0       0       0       0       0
      Totals:         0       0       0       0       0       0       0       0       0       0       0       0       0       0       0
Total ram usage:        0 bytes
 Hardware stack levels used:    1
 Hardware stack levels required when called:    8
 This function calls:
		Nothing
 This function is called by:
		_led
 This function uses a non-reentrant model


 *************** function _setBlueLed *****************
 Defined at:
		line 272 in file "led.c"
 Parameters:    Size  Location     Type
		None
 Auto vars:     Size  Location     Type
		None
 Return value:  Size  Location     Type
                  1    wreg      void 
 Registers used:
		None
 Tracked objects:
		On entry : 
		On exit  : 
		Unchanged: 
 Data sizes:     COMRAM   BANK0   BANK1   BANK2   BANK3   BANK4   BANK5   BANK6   BANK7   BANK8   BANK9  BANK10  BANK11  BANK12  BANK13
      Params:         0       0       0       0       0       0       0       0       0       0       0       0       0       0       0
      Locals:         0       0       0       0       0       0       0       0       0       0       0       0       0       0       0
      Temps:          0       0       0       0       0       0       0       0       0       0       0       0       0       0       0
      Totals:         0       0       0       0       0       0       0       0       0       0       0       0       0       0       0
Total ram usage:        0 bytes
 Hardware stack levels used:    1
 Hardware stack levels required when called:    8
 This function calls:
		Nothing
 This function is called by:
		_led
		_programUIDs
 This function uses a non-reentrant model


 *************** function _incomingCommandsStateHandler *****************
 Defined at:
		line 45 in file "incomingCommands.c"
 Parameters:    Size  Location     Type
		None
 Auto vars:     Size  Location     Type
		None
 Return value:  Size  Location     Type
                  1    wreg      void 
 Registers used:
		wreg, status,2, status,0, cstack
 Tracked objects:
		On entry : 
		On exit  : 
		Unchanged: 
 Data sizes:     COMRAM   BANK0   BANK1   BANK2   BANK3   BANK4   BANK5   BANK6   BANK7   BANK8   BANK9  BANK10  BANK11  BANK12  BANK13
      Params:         0       0       0       0       0       0       0       0       0       0       0       0       0       0       0
      Locals:         0       0       0       0       0       0       0       0       0       0       0       0       0       0       0
      Temps:          0       0       0       0       0       0       0       0       0       0       0       0       0       0       0
      Totals:         0       0       0       0       0       0       0       0       0       0       0       0       0       0       0
Total ram usage:        0 bytes
 Hardware stack levels used:    1
 Hardware stack levels required when called:    9
 This function calls:
		_DataReadyST7540
 This function is called by:
		_currentStateHandler
 This function uses a non-reentrant model


 *************** function _DataReadyST7540 *****************
 Defined at:
		line 309 in file "ST7540.c"
 Parameters:    Size  Location     Type
		None
 Auto vars:     Size  Location     Type
		None
 Return value:  Size  Location     Type
                  1    wreg      unsigned char 
 Registers used:
		wreg, status,2, status,0
 Tracked objects:
		On entry : 
		On exit  : 
		Unchanged: 
 Data sizes:     COMRAM   BANK0   BANK1   BANK2   BANK3   BANK4   BANK5   BANK6   BANK7   BANK8   BANK9  BANK10  BANK11  BANK12  BANK13
      Params:         0       0       0       0       0       0       0       0       0       0       0       0       0       0       0
      Locals:         0       0       0       0       0       0       0       0       0       0       0       0       0       0       0
      Temps:          0       0       0       0       0       0       0       0       0       0       0       0       0       0       0
      Totals:         0       0       0       0       0       0       0       0       0       0       0       0       0       0       0
Total ram usage:        0 bytes
 Hardware stack levels used:    1
 Hardware stack levels required when called:    8
 This function calls:
		Nothing
 This function is called by:
		_incomingCommandsStateHandler
 This function uses a non-reentrant model


 *************** function _incomingCommands *****************
 Defined at:
		line 19 in file "incomingCommands.c"
 Parameters:    Size  Location     Type
		None
 Auto vars:     Size  Location     Type
		None
 Return value:  Size  Location     Type
                  1    wreg      void 
 Registers used:
		wreg, fsr1l, fsr1h, fsr2l, fsr2h, status,2, status,0, prodl, prodh, cstack
 Tracked objects:
		On entry : 
		On exit  : 
		Unchanged: 
 Data sizes:     COMRAM   BANK0   BANK1   BANK2   BANK3   BANK4   BANK5   BANK6   BANK7   BANK8   BANK9  BANK10  BANK11  BANK12  BANK13
      Params:         0       0       0       0       0       0       0       0       0       0       0       0       0       0       0
      Locals:         0       0       0       0       0       0       0       0       0       0       0       0       0       0       0
      Temps:          0       0       0       0       0       0       0       0       0       0       0       0       0       0       0
      Totals:         0       0       0       0       0       0       0       0       0       0       0       0       0       0       0
Total ram usage:        0 bytes
 Hardware stack levels used:    1
 Hardware stack levels required when called:   12
 This function calls:
		_ReceiveNewDataST7540
		_addPacketToIncomingQueue
		_handleIncomingQueuePacket
 This function is called by:
		_currentStateHandler
 This function uses a non-reentrant model


 *************** function _handleIncomingQueuePacket *****************
 Defined at:
		line 96 in file "packetQueueHandler.c"
 Parameters:    Size  Location     Type
		None
 Auto vars:     Size  Location     Type
  index           1   19[BANK0 ] unsigned char 
 Return value:  Size  Location     Type
                  1    wreg      void 
 Registers used:
		wreg, fsr1l, fsr1h, fsr2l, fsr2h, status,2, status,0, prodl, prodh, cstack
 Tracked objects:
		On entry : 
		On exit  : 
		Unchanged: 
 Data sizes:     COMRAM   BANK0   BANK1   BANK2   BANK3   BANK4   BANK5   BANK6   BANK7   BANK8   BANK9  BANK10  BANK11  BANK12  BANK13
      Params:         0       0       0       0       0       0       0       0       0       0       0       0       0       0       0
      Locals:         0       1       0       0       0       0       0       0       0       0       0       0       0       0       0
      Temps:          0       2       0       0       0       0       0       0       0       0       0       0       0       0       0
      Totals:         0       3       0       0       0       0       0       0       0       0       0       0       0       0       0
Total ram usage:        3 bytes
 Hardware stack levels used:    1
 Hardware stack levels required when called:   10
 This function calls:
		_addDataToOutgoingQueue
 This function is called by:
		_incomingCommands
 This function uses a non-reentrant model


 *************** function _addPacketToIncomingQueue *****************
 Defined at:
		line 140 in file "packetQueueHandler.c"
 Parameters:    Size  Location     Type
		None
 Auto vars:     Size  Location     Type
  i               2   32[BANK0 ] int 
 Return value:  Size  Location     Type
                  1    wreg      void 
 Registers used:
		wreg, fsr1l, fsr1h, fsr2l, fsr2h, status,2, status,0, prodl, prodh, cstack
 Tracked objects:
		On entry : 
		On exit  : 
		Unchanged: 
 Data sizes:     COMRAM   BANK0   BANK1   BANK2   BANK3   BANK4   BANK5   BANK6   BANK7   BANK8   BANK9  BANK10  BANK11  BANK12  BANK13
      Params:         0       0       0       0       0       0       0       0       0       0       0       0       0       0       0
      Locals:         0       2       0       0       0       0       0       0       0       0       0       0       0       0       0
      Temps:          0       4       0       0       0       0       0       0       0       0       0       0       0       0       0
      Totals:         0       6       0       0       0       0       0       0       0       0       0       0       0       0       0
Total ram usage:        6 bytes
 Hardware stack levels used:    1
 Hardware stack levels required when called:   11
 This function calls:
		_PacketDataST7540
		_PacketReadParamST7540
 This function is called by:
		_incomingCommands
 This function uses a non-reentrant model


 *************** function _PacketReadParamST7540 *****************
 Defined at:
		line 284 in file "ST7540.c"
 Parameters:    Size  Location     Type
  paramName       1    wreg     unsigned char 
 Auto vars:     Size  Location     Type
  paramName       1   25[BANK0 ] unsigned char 
  retValueUS      2   26[BANK0 ] unsigned short 
 Return value:  Size  Location     Type
                  2   21[BANK0 ] unsigned short 
 Registers used:
		wreg, fsr2l, fsr2h, status,2, status,0, prodl, prodh, cstack
 Tracked objects:
		On entry : 
		On exit  : 
		Unchanged: 
 Data sizes:     COMRAM   BANK0   BANK1   BANK2   BANK3   BANK4   BANK5   BANK6   BANK7   BANK8   BANK9  BANK10  BANK11  BANK12  BANK13
      Params:         0       2       0       0       0       0       0       0       0       0       0       0       0       0       0
      Locals:         0       3       0       0       0       0       0       0       0       0       0       0       0       0       0
      Temps:          0       2       0       0       0       0       0       0       0       0       0       0       0       0       0
      Totals:         0       7       0       0       0       0       0       0       0       0       0       0       0       0       0
Total ram usage:        7 bytes
 Hardware stack levels used:    1
 Hardware stack levels required when called:   10
 This function calls:
		_CheckCRCST7540
 This function is called by:
		_addPacketToIncomingQueue
 This function uses a non-reentrant model


 *************** function _CheckCRCST7540 *****************
 Defined at:
		line 313 in file "ST7540.c"
 Parameters:    Size  Location     Type
		None
 Auto vars:     Size  Location     Type
  receivedCRCU    2   18[BANK0 ] unsigned short 
  expectedCRCU    2   16[BANK0 ] unsigned short 
  packetLenUC     1   20[BANK0 ] unsigned char 
 Return value:  Size  Location     Type
                  1    wreg      unsigned char 
 Registers used:
		wreg, fsr2l, fsr2h, status,2, status,0, prodl, prodh, cstack
 Tracked objects:
		On entry : 
		On exit  : 
		Unchanged: 
 Data sizes:     COMRAM   BANK0   BANK1   BANK2   BANK3   BANK4   BANK5   BANK6   BANK7   BANK8   BANK9  BANK10  BANK11  BANK12  BANK13
      Params:         0       0       0       0       0       0       0       0       0       0       0       0       0       0       0
      Locals:         0       5       0       0       0       0       0       0       0       0       0       0       0       0       0
      Temps:          0       3       0       0       0       0       0       0       0       0       0       0       0       0       0
      Totals:         0       8       0       0       0       0       0       0       0       0       0       0       0       0       0
Total ram usage:        8 bytes
 Hardware stack levels used:    1
 Hardware stack levels required when called:    9
 This function calls:
		_CRC16
 This function is called by:
		_PacketReadParamST7540
 This function uses a non-reentrant model


 *************** function _CRC16 *****************
 Defined at:
		line 22 in file "crc16.c"
 Parameters:    Size  Location     Type
  data_p          2    0[BANK0 ] PTR unsigned char 
		 -> bufferRXST7540UCA(75), bufferTXST7540UCA(79), 
  length          2    2[BANK0 ] unsigned short 
 Auto vars:     Size  Location     Type
  crc             2   11[BANK0 ] unsigned int 
  data            2    9[BANK0 ] unsigned int 
  i               1    8[BANK0 ] unsigned char 
 Return value:  Size  Location     Type
                  2    0[BANK0 ] unsigned short 
 Registers used:
		wreg, fsr2l, fsr2h, status,2, status,0
 Tracked objects:
		On entry : 
		On exit  : 
		Unchanged: 
 Data sizes:     COMRAM   BANK0   BANK1   BANK2   BANK3   BANK4   BANK5   BANK6   BANK7   BANK8   BANK9  BANK10  BANK11  BANK12  BANK13
      Params:         0       4       0       0       0       0       0       0       0       0       0       0       0       0       0
      Locals:         0       5       0       0       0       0       0       0       0       0       0       0       0       0       0
      Temps:          0       4       0       0       0       0       0       0       0       0       0       0       0       0       0
      Totals:         0      13       0       0       0       0       0       0       0       0       0       0       0       0       0
Total ram usage:       13 bytes
 Hardware stack levels used:    1
 Hardware stack levels required when called:    8
 This function calls:
		Nothing
 This function is called by:
		_buildMessageST7540
		_CheckCRCST7540
 This function uses a non-reentrant model


 *************** function _PacketDataST7540 *****************
 Defined at:
		line 280 in file "ST7540.c"
 Parameters:    Size  Location     Type
		None
 Auto vars:     Size  Location     Type
		None
 Return value:  Size  Location     Type
                  2    0[BANK0 ] PTR unsigned char 
 Registers used:
		wreg, status,2, status,0
 Tracked objects:
		On entry : 
		On exit  : 
		Unchanged: 
 Data sizes:     COMRAM   BANK0   BANK1   BANK2   BANK3   BANK4   BANK5   BANK6   BANK7   BANK8   BANK9  BANK10  BANK11  BANK12  BANK13
      Params:         0       2       0       0       0       0       0       0       0       0       0       0       0       0       0
      Locals:         0       0       0       0       0       0       0       0       0       0       0       0       0       0       0
      Temps:          0       0       0       0       0       0       0       0       0       0       0       0       0       0       0
      Totals:         0       2       0       0       0       0       0       0       0       0       0       0       0       0       0
Total ram usage:        2 bytes
 Hardware stack levels used:    1
 Hardware stack levels required when called:    8
 This function calls:
		Nothing
 This function is called by:
		_addPacketToIncomingQueue
 This function uses a non-reentrant model


 *************** function _ReceiveNewDataST7540 *****************
 Defined at:
		line 270 in file "ST7540.c"
 Parameters:    Size  Location     Type
		None
 Auto vars:     Size  Location     Type
  discardUC       1    0[BANK0 ] unsigned char 
 Return value:  Size  Location     Type
                  1    wreg      void 
 Registers used:
		wreg, status,2, status,0
 Tracked objects:
		On entry : 
		On exit  : 
		Unchanged: 
 Data sizes:     COMRAM   BANK0   BANK1   BANK2   BANK3   BANK4   BANK5   BANK6   BANK7   BANK8   BANK9  BANK10  BANK11  BANK12  BANK13
      Params:         0       0       0       0       0       0       0       0       0       0       0       0       0       0       0
      Locals:         0       1       0       0       0       0       0       0       0       0       0       0       0       0       0
      Temps:          0       0       0       0       0       0       0       0       0       0       0       0       0       0       0
      Totals:         0       1       0       0       0       0       0       0       0       0       0       0       0       0       0
Total ram usage:        1 bytes
 Hardware stack levels used:    1
 Hardware stack levels required when called:    8
 This function calls:
		Nothing
 This function is called by:
		_incomingCommands
 This function uses a non-reentrant model


 *************** function _bluetoothStateHandler *****************
 Defined at:
		line 318 in file "bluetooth.c"
 Parameters:    Size  Location     Type
		None
 Auto vars:     Size  Location     Type
		None
 Return value:  Size  Location     Type
                  1    wreg      void 
 Registers used:
		wreg, status,2, status,0
 Tracked objects:
		On entry : 
		On exit  : 
		Unchanged: 
 Data sizes:     COMRAM   BANK0   BANK1   BANK2   BANK3   BANK4   BANK5   BANK6   BANK7   BANK8   BANK9  BANK10  BANK11  BANK12  BANK13
      Params:         0       0       0       0       0       0       0       0       0       0       0       0       0       0       0
      Locals:         0       0       0       0       0       0       0       0       0       0       0       0       0       0       0
      Temps:          0       0       0       0       0       0       0       0       0       0       0       0       0       0       0
      Totals:         0       0       0       0       0       0       0       0       0       0       0       0       0       0       0
Total ram usage:        0 bytes
 Hardware stack levels used:    1
 Hardware stack levels required when called:    8
 This function calls:
		Nothing
 This function is called by:
		_currentStateHandler
 This function uses a non-reentrant model


 *************** function _bluetooth *****************
 Defined at:
		line 242 in file "bluetooth.c"
 Parameters:    Size  Location     Type
		None
 Auto vars:     Size  Location     Type
		None
 Return value:  Size  Location     Type
                  1    wreg      void 
 Registers used:
		wreg, fsr1l, fsr1h, fsr2l, fsr2h, status,2, status,0, prodl, prodh, cstack
 Tracked objects:
		On entry : 
		On exit  : 
		Unchanged: 
 Data sizes:     COMRAM   BANK0   BANK1   BANK2   BANK3   BANK4   BANK5   BANK6   BANK7   BANK8   BANK9  BANK10  BANK11  BANK12  BANK13
      Params:         0       0       0       0       0       0       0       0       0       0       0       0       0       0       0
      Locals:         0       0       0       0       0       0       0       0       0       0       0       0       0       0       0
      Temps:          0       0       0       0       0       0       0       0       0       0       0       0       0       0       0
      Totals:         0       0       0       0       0       0       0       0       0       0       0       0       0       0       0
Total ram usage:        0 bytes
 Hardware stack levels used:    1
 Hardware stack levels required when called:   13
 This function calls:
		_addDataToOutgoingQueue
		_bluetoothSetupSwitch
		_processBTPacket
		_sendPacket
 This function is called by:
		_currentStateHandler
 This function uses a non-reentrant model


 *************** function _sendPacket *****************
 Defined at:
		line 105 in file "bluetooth.c"
 Parameters:    Size  Location     Type
		None
 Auto vars:     Size  Location     Type
  txReg          11   37[BANK0 ] unsigned char [11]
  i               2   48[BANK0 ] int 
 Return value:  Size  Location     Type
                  1    wreg      void 
 Registers used:
		wreg, fsr1l, fsr1h, fsr2l, fsr2h, status,2, status,0, prodl, prodh, cstack
 Tracked objects:
		On entry : 
		On exit  : 
		Unchanged: 
 Data sizes:     COMRAM   BANK0   BANK1   BANK2   BANK3   BANK4   BANK5   BANK6   BANK7   BANK8   BANK9  BANK10  BANK11  BANK12  BANK13
      Params:         0       0       0       0       0       0       0       0       0       0       0       0       0       0       0
      Locals:         0      13       0       0       0       0       0       0       0       0       0       0       0       0       0
      Temps:          0       5       0       0       0       0       0       0       0       0       0       0       0       0       0
      Totals:         0      18       0       0       0       0       0       0       0       0       0       0       0       0       0
Total ram usage:       18 bytes
 Hardware stack levels used:    1
 Hardware stack levels required when called:   11
 This function calls:
		_bluetoothCRC
		_writeEUSART
 This function is called by:
		_bluetooth
 This function uses a non-reentrant model


 *************** function _processBTPacket *****************
 Defined at:
		line 135 in file "bluetooth.c"
 Parameters:    Size  Location     Type
		None
 Auto vars:     Size  Location     Type
  i               2   62[BANK0 ] int 
  i               2   60[BANK0 ] int 
  tempDetInfo     2   58[BANK0 ] PTR unsigned char 
		 -> ABB_1.det_arrays.info.data(1), ABB_1.det_arrays.info(404), 
 Return value:  Size  Location     Type
                  1    wreg      void 
 Registers used:
		wreg, fsr1l, fsr1h, fsr2l, fsr2h, status,2, status,0, prodl, prodh, cstack
 Tracked objects:
		On entry : 
		On exit  : 
		Unchanged: 
 Data sizes:     COMRAM   BANK0   BANK1   BANK2   BANK3   BANK4   BANK5   BANK6   BANK7   BANK8   BANK9  BANK10  BANK11  BANK12  BANK13
      Params:         0       0       0       0       0       0       0       0       0       0       0       0       0       0       0
      Locals:         0       6       0       0       0       0       0       0       0       0       0       0       0       0       0
      Temps:          0       7       0       0       0       0       0       0       0       0       0       0       0       0       0
      Totals:         0      13       0       0       0       0       0       0       0       0       0       0       0       0       0
Total ram usage:       13 bytes
 Hardware stack levels used:    1
 Hardware stack levels required when called:   12
 This function calls:
		_checkBluetoothCRC
		_checkForExistingUID
 This function is called by:
		_bluetooth
 This function uses a non-reentrant model


 *************** function _checkForExistingUID *****************
 Defined at:
		line 190 in file "peripherals.c"
 Parameters:    Size  Location     Type
  receivedUID     2    6[BANK0 ] PTR unsigned long 
		 -> btPacket.receive(11), btPacket(22), response(4), TAG_Response(10), 
 Auto vars:     Size  Location     Type
  i               2   18[BANK0 ] int 
  currentUID      2   16[BANK0 ] PTR unsigned long 
		 -> ABB_1.det_arrays.UIDs.UID(4), ABB_1.det_arrays.UIDs(505), 
 Return value:  Size  Location     Type
                  1    wreg      unsigned char 
 Registers used:
		wreg, fsr1l, fsr1h, fsr2l, fsr2h, status,2, status,0, prodl, prodh, cstack
 Tracked objects:
		On entry : 
		On exit  : 
		Unchanged: 
 Data sizes:     COMRAM   BANK0   BANK1   BANK2   BANK3   BANK4   BANK5   BANK6   BANK7   BANK8   BANK9  BANK10  BANK11  BANK12  BANK13
      Params:         0       2       0       0       0       0       0       0       0       0       0       0       0       0       0
      Locals:         0       4       0       0       0       0       0       0       0       0       0       0       0       0       0
      Temps:          0       8       0       0       0       0       0       0       0       0       0       0       0       0       0
      Totals:         0      14       0       0       0       0       0       0       0       0       0       0       0       0       0
Total ram usage:       14 bytes
 Hardware stack levels used:    1
 Hardware stack levels required when called:    9
 This function calls:
		___wmul
 This function is called by:
		_readUID
		_processBTPacket
 This function uses a non-reentrant model


 *************** function _checkBluetoothCRC *****************
 Defined at:
		line 383 in file "bluetooth.c"
 Parameters:    Size  Location     Type
		None
 Auto vars:     Size  Location     Type
  i               2   48[BANK0 ] int 
  data           11   37[BANK0 ] unsigned char [11]
  indexCrc        1   50[BANK0 ] unsigned char 
 Return value:  Size  Location     Type
                  1    wreg      unsigned char 
 Registers used:
		wreg, fsr1l, fsr1h, fsr2l, fsr2h, status,2, status,0, prodl, prodh, cstack
 Tracked objects:
		On entry : 
		On exit  : 
		Unchanged: 
 Data sizes:     COMRAM   BANK0   BANK1   BANK2   BANK3   BANK4   BANK5   BANK6   BANK7   BANK8   BANK9  BANK10  BANK11  BANK12  BANK13
      Params:         0       0       0       0       0       0       0       0       0       0       0       0       0       0       0
      Locals:         0      14       0       0       0       0       0       0       0       0       0       0       0       0       0
      Temps:          0       5       0       0       0       0       0       0       0       0       0       0       0       0       0
      Totals:         0      19       0       0       0       0       0       0       0       0       0       0       0       0       0
Total ram usage:       19 bytes
 Hardware stack levels used:    1
 Hardware stack levels required when called:   11
 This function calls:
		_bluetoothCRC
 This function is called by:
		_processBTPacket
 This function uses a non-reentrant model


 *************** function _bluetoothCRC *****************
 Defined at:
		line 400 in file "bluetooth.c"
 Parameters:    Size  Location     Type
  data            2   15[BANK0 ] PTR unsigned char 
		 -> checkBluetoothCRC@data(11), sendPacket@txReg(11), 
  length          1   17[BANK0 ] unsigned char 
 Auto vars:     Size  Location     Type
  intCrc          2   30[BANK0 ] int 
  loopBits        2   28[BANK0 ] int 
  loopBytes       2   26[BANK0 ] int 
  testBit         2   24[BANK0 ] unsigned int 
  crc             2   22[BANK0 ] unsigned short 
 Return value:  Size  Location     Type
                  2   15[BANK0 ] unsigned short 
 Registers used:
		wreg, fsr2l, fsr2h, status,2, status,0, prodl, prodh, cstack
 Tracked objects:
		On entry : 
		On exit  : 
		Unchanged: 
 Data sizes:     COMRAM   BANK0   BANK1   BANK2   BANK3   BANK4   BANK5   BANK6   BANK7   BANK8   BANK9  BANK10  BANK11  BANK12  BANK13
      Params:         0       3       0       0       0       0       0       0       0       0       0       0       0       0       0
      Locals:         0      10       0       0       0       0       0       0       0       0       0       0       0       0       0
      Temps:          0       4       0       0       0       0       0       0       0       0       0       0       0       0       0
      Totals:         0      17       0       0       0       0       0       0       0       0       0       0       0       0       0
Total ram usage:       17 bytes
 Hardware stack levels used:    1
 Hardware stack levels required when called:   10
 This function calls:
		_power
 This function is called by:
		_sendPacket
		_checkBluetoothCRC
 This function uses a non-reentrant model


 *************** function _power *****************
 Defined at:
		line 420 in file "bluetooth.c"
 Parameters:    Size  Location     Type
  base            2    6[BANK0 ] int 
  exponent        2    8[BANK0 ] int 
 Auto vars:     Size  Location     Type
  result          2   13[BANK0 ] unsigned short 
  i               2   11[BANK0 ] int 
 Return value:  Size  Location     Type
                  1    wreg      unsigned char 
 Registers used:
		wreg, status,2, status,0, prodl, prodh, cstack
 Tracked objects:
		On entry : 
		On exit  : 
		Unchanged: 
 Data sizes:     COMRAM   BANK0   BANK1   BANK2   BANK3   BANK4   BANK5   BANK6   BANK7   BANK8   BANK9  BANK10  BANK11  BANK12  BANK13
      Params:         0       4       0       0       0       0       0       0       0       0       0       0       0       0       0
      Locals:         0       4       0       0       0       0       0       0       0       0       0       0       0       0       0
      Temps:          0       1       0       0       0       0       0       0       0       0       0       0       0       0       0
      Totals:         0       9       0       0       0       0       0       0       0       0       0       0       0       0       0
Total ram usage:        9 bytes
 Hardware stack levels used:    1
 Hardware stack levels required when called:    9
 This function calls:
		___wmul
 This function is called by:
		_bluetoothCRC
 This function uses a non-reentrant model


 *************** function _bluetoothSetupSwitch *****************
 Defined at:
		line 495 in file "bluetooth.c"
 Parameters:    Size  Location     Type
		None
 Auto vars:     Size  Location     Type
		None
 Return value:  Size  Location     Type
                  1    wreg      void 
 Registers used:
		wreg, fsr1l, fsr1h, fsr2l, fsr2h, status,2, status,0, prodl, prodh, cstack
 Tracked objects:
		On entry : 
		On exit  : 
		Unchanged: 
 Data sizes:     COMRAM   BANK0   BANK1   BANK2   BANK3   BANK4   BANK5   BANK6   BANK7   BANK8   BANK9  BANK10  BANK11  BANK12  BANK13
      Params:         0       0       0       0       0       0       0       0       0       0       0       0       0       0       0
      Locals:         0       0       0       0       0       0       0       0       0       0       0       0       0       0       0
      Temps:          0       0       0       0       0       0       0       0       0       0       0       0       0       0       0
      Totals:         0       0       0       0       0       0       0       0       0       0       0       0       0       0       0
Total ram usage:        0 bytes
 Hardware stack levels used:    1
 Hardware stack levels required when called:   10
 This function calls:
		_resetBluetooth
		_setDeviceName
		_setSlaveMode
 This function is called by:
		_bluetooth
 This function uses a non-reentrant model


 *************** function _setSlaveMode *****************
 Defined at:
		line 212 in file "bluetooth.c"
 Parameters:    Size  Location     Type
		None
 Auto vars:     Size  Location     Type
  txreg          11    8[BANK0 ] unsigned char [11]
 Return value:  Size  Location     Type
                  1    wreg      void 
 Registers used:
		wreg, fsr1l, fsr1h, fsr2l, fsr2h, status,2, status,0, cstack
 Tracked objects:
		On entry : 
		On exit  : 
		Unchanged: 
 Data sizes:     COMRAM   BANK0   BANK1   BANK2   BANK3   BANK4   BANK5   BANK6   BANK7   BANK8   BANK9  BANK10  BANK11  BANK12  BANK13
      Params:         0       0       0       0       0       0       0       0       0       0       0       0       0       0       0
      Locals:         0      11       0       0       0       0       0       0       0       0       0       0       0       0       0
      Temps:          0       0       0       0       0       0       0       0       0       0       0       0       0       0       0
      Totals:         0      11       0       0       0       0       0       0       0       0       0       0       0       0       0
Total ram usage:       11 bytes
 Hardware stack levels used:    1
 Hardware stack levels required when called:    9
 This function calls:
		_writeEUSART
 This function is called by:
		_bluetoothSetupSwitch
 This function uses a non-reentrant model


 *************** function _setDeviceName *****************
 Defined at:
		line 219 in file "bluetooth.c"
 Parameters:    Size  Location     Type
		None
 Auto vars:     Size  Location     Type
  txreg          22    8[BANK0 ] unsigned char [22]
  tempSerial      2   30[BANK0 ] unsigned short 
 Return value:  Size  Location     Type
                  1    wreg      void 
 Registers used:
		wreg, fsr1l, fsr1h, fsr2l, fsr2h, status,2, status,0, prodl, prodh, cstack
 Tracked objects:
		On entry : 
		On exit  : 
		Unchanged: 
 Data sizes:     COMRAM   BANK0   BANK1   BANK2   BANK3   BANK4   BANK5   BANK6   BANK7   BANK8   BANK9  BANK10  BANK11  BANK12  BANK13
      Params:         0       0       0       0       0       0       0       0       0       0       0       0       0       0       0
      Locals:         0      24       0       0       0       0       0       0       0       0       0       0       0       0       0
      Temps:          0       0       0       0       0       0       0       0       0       0       0       0       0       0       0
      Totals:         0      24       0       0       0       0       0       0       0       0       0       0       0       0       0
Total ram usage:       24 bytes
 Hardware stack levels used:    1
 Hardware stack levels required when called:    9
 This function calls:
		___lwdiv
		___wmul
		_writeEUSART
 This function is called by:
		_bluetoothSetupSwitch
 This function uses a non-reentrant model


 *************** function _writeEUSART *****************
 Defined at:
		line 93 in file "bluetooth.c"
 Parameters:    Size  Location     Type
  data            2    0[BANK0 ] PTR unsigned char 
		 -> setBaudRate@txreg(11), setDeviceName@txreg(22), setSlaveMode@txreg(11), sendAtCommand@txreg(5), 
		 -> sendPacket@txReg(11), 
  size            1    2[BANK0 ] unsigned char 
 Auto vars:     Size  Location     Type
  i               2    6[BANK0 ] int 
 Return value:  Size  Location     Type
                  1    wreg      void 
 Registers used:
		wreg, fsr2l, fsr2h, status,2, status,0
 Tracked objects:
		On entry : 
		On exit  : 
		Unchanged: 
 Data sizes:     COMRAM   BANK0   BANK1   BANK2   BANK3   BANK4   BANK5   BANK6   BANK7   BANK8   BANK9  BANK10  BANK11  BANK12  BANK13
      Params:         0       3       0       0       0       0       0       0       0       0       0       0       0       0       0
      Locals:         0       2       0       0       0       0       0       0       0       0       0       0       0       0       0
      Temps:          0       3       0       0       0       0       0       0       0       0       0       0       0       0       0
      Totals:         0       8       0       0       0       0       0       0       0       0       0       0       0       0       0
Total ram usage:        8 bytes
 Hardware stack levels used:    1
 Hardware stack levels required when called:    8
 This function calls:
		Nothing
 This function is called by:
		_sendPacket
		_setSlaveMode
		_setDeviceName
		_sendAtCommand
		_setBaudRate
 This function uses a non-reentrant model


 *************** function ___lwdiv *****************
 Defined at:
		line 8 in file "C:\Program Files (x86)\Microchip\xc8\v1.41\sources\common\lwdiv.c"
 Parameters:    Size  Location     Type
  dividend        2    0[BANK0 ] unsigned int 
  divisor         2    2[BANK0 ] unsigned int 
 Auto vars:     Size  Location     Type
  quotient        2    5[BANK0 ] unsigned int 
  counter         1    4[BANK0 ] unsigned char 
 Return value:  Size  Location     Type
                  2    0[BANK0 ] unsigned int 
 Registers used:
		wreg, status,2, status,0
 Tracked objects:
		On entry : 
		On exit  : 
		Unchanged: 
 Data sizes:     COMRAM   BANK0   BANK1   BANK2   BANK3   BANK4   BANK5   BANK6   BANK7   BANK8   BANK9  BANK10  BANK11  BANK12  BANK13
      Params:         0       4       0       0       0       0       0       0       0       0       0       0       0       0       0
      Locals:         0       3       0       0       0       0       0       0       0       0       0       0       0       0       0
      Temps:          0       0       0       0       0       0       0       0       0       0       0       0       0       0       0
      Totals:         0       7       0       0       0       0       0       0       0       0       0       0       0       0       0
Total ram usage:        7 bytes
 Hardware stack levels used:    1
 Hardware stack levels required when called:    8
 This function calls:
		Nothing
 This function is called by:
		_setDeviceName
 This function uses a non-reentrant model


 *************** function _resetBluetooth *****************
 Defined at:
		line 515 in file "bluetooth.c"
 Parameters:    Size  Location     Type
		None
 Auto vars:     Size  Location     Type
		None
 Return value:  Size  Location     Type
                  1    wreg      void 
 Registers used:
		wreg, status,2, status,0, cstack
 Tracked objects:
		On entry : 
		On exit  : 
		Unchanged: 
 Data sizes:     COMRAM   BANK0   BANK1   BANK2   BANK3   BANK4   BANK5   BANK6   BANK7   BANK8   BANK9  BANK10  BANK11  BANK12  BANK13
      Params:         0       0       0       0       0       0       0       0       0       0       0       0       0       0       0
      Locals:         0       0       0       0       0       0       0       0       0       0       0       0       0       0       0
      Temps:          0       0       0       0       0       0       0       0       0       0       0       0       0       0       0
      Totals:         0       0       0       0       0       0       0       0       0       0       0       0       0       0       0
Total ram usage:        0 bytes
 Hardware stack levels used:    1
 Hardware stack levels required when called:    9
 This function calls:
		__delay_us
 This function is called by:
		_bluetoothSetupSwitch
 This function uses a non-reentrant model


 *************** function __delay_us *****************
 Defined at:
		line 125 in file "peripherals.c"
 Parameters:    Size  Location     Type
  us              1    wreg     unsigned char 
 Auto vars:     Size  Location     Type
  us              1    0[BANK0 ] unsigned char 
 Return value:  Size  Location     Type
                  1    wreg      void 
 Registers used:
		wreg, status,2, status,0
 Tracked objects:
		On entry : 
		On exit  : 
		Unchanged: 
 Data sizes:     COMRAM   BANK0   BANK1   BANK2   BANK3   BANK4   BANK5   BANK6   BANK7   BANK8   BANK9  BANK10  BANK11  BANK12  BANK13
      Params:         0       0       0       0       0       0       0       0       0       0       0       0       0       0       0
      Locals:         0       1       0       0       0       0       0       0       0       0       0       0       0       0       0
      Temps:          0       0       0       0       0       0       0       0       0       0       0       0       0       0       0
      Totals:         0       1       0       0       0       0       0       0       0       0       0       0       0       0       0
Total ram usage:        1 bytes
 Hardware stack levels used:    1
 Hardware stack levels required when called:    8
 This function calls:
		Nothing
 This function is called by:
		__delay_ms
		_readBatteryADC
		_readBatteryADCSetup
		_readS1StateADC
		_readEDDADC
		_readEDDADCSetup
		_readS1StateADCSetup
		_readCableADC
		_readEarthADCSetup
		_readEarthADC
		_readCableADCSetup
		_resetBluetooth
		_turnOn24V
 This function uses a non-reentrant model


 *************** function _addDataToOutgoingQueue *****************
 Defined at:
		line 39 in file "packetQueueHandler.c"
 Parameters:    Size  Location     Type
  data            2    6[BANK0 ] PTR unsigned char 
		 -> ABB_1.det_arrays(909), ABB_1(917), 
  command         1    8[BANK0 ] unsigned char 
  size            2    9[BANK0 ] int 
 Auto vars:     Size  Location     Type
  length_track    1   16[BANK0 ] unsigned char 
  length          1   15[BANK0 ] unsigned char 
 Return value:  Size  Location     Type
                  1    wreg      void 
 Registers used:
		wreg, fsr1l, fsr1h, fsr2l, fsr2h, status,2, status,0, prodl, prodh, cstack
 Tracked objects:
		On entry : 
		On exit  : 
		Unchanged: 
 Data sizes:     COMRAM   BANK0   BANK1   BANK2   BANK3   BANK4   BANK5   BANK6   BANK7   BANK8   BANK9  BANK10  BANK11  BANK12  BANK13
      Params:         0       5       0       0       0       0       0       0       0       0       0       0       0       0       0
      Locals:         0       2       0       0       0       0       0       0       0       0       0       0       0       0       0
      Temps:          0       4       0       0       0       0       0       0       0       0       0       0       0       0       0
      Totals:         0      11       0       0       0       0       0       0       0       0       0       0       0       0       0
Total ram usage:       11 bytes
 Hardware stack levels used:    1
 Hardware stack levels required when called:    9
 This function calls:
		___wmul
 This function is called by:
		_handleIncomingQueuePacket
		_fire
		_bluetooth
		_firePic
 This function uses a non-reentrant model


 *************** function ___wmul *****************
 Defined at:
		line 15 in file "C:\Program Files (x86)\Microchip\xc8\v1.41\sources\common\Umul16.c"
 Parameters:    Size  Location     Type
  multiplier      2    0[BANK0 ] unsigned int 
  multiplicand    2    2[BANK0 ] unsigned int 
 Auto vars:     Size  Location     Type
  product         2    4[BANK0 ] unsigned int 
 Return value:  Size  Location     Type
                  2    0[BANK0 ] unsigned int 
 Registers used:
		wreg, status,2, status,0, prodl, prodh
 Tracked objects:
		On entry : 
		On exit  : 
		Unchanged: 
 Data sizes:     COMRAM   BANK0   BANK1   BANK2   BANK3   BANK4   BANK5   BANK6   BANK7   BANK8   BANK9  BANK10  BANK11  BANK12  BANK13
      Params:         0       4       0       0       0       0       0       0       0       0       0       0       0       0       0
      Locals:         0       2       0       0       0       0       0       0       0       0       0       0       0       0       0
      Temps:          0       0       0       0       0       0       0       0       0       0       0       0       0       0       0
      Totals:         0       6       0       0       0       0       0       0       0       0       0       0       0       0       0
Total ram usage:        6 bytes
 Hardware stack levels used:    1
 Hardware stack levels required when called:    8
 This function calls:
		Nothing
 This function is called by:
		_variance
		_checkForExistingUID
		_testMemory
		_initialiseDetWindows
		_initialiseDetMemory
		_addDataToOutgoingQueue
		_sleep
		_setDeviceName
		_power
		_getIndexByUID
 This function uses a non-reentrant model


 *************** function _checkStatusBits *****************
 Defined at:
		line 430 in file "main.c"
 Parameters:    Size  Location     Type
		None
 Auto vars:     Size  Location     Type
  status          2   10[BANK0 ] PTR unsigned short 
		 -> ABB_1.info.statusBits(2), ABB_1.info(3), 
 Return value:  Size  Location     Type
                  1    wreg      void 
 Registers used:
		wreg, fsr2l, fsr2h, status,2, status,0, prodl, prodh, cstack
 Tracked objects:
		On entry : 
		On exit  : 
		Unchanged: 
 Data sizes:     COMRAM   BANK0   BANK1   BANK2   BANK3   BANK4   BANK5   BANK6   BANK7   BANK8   BANK9  BANK10  BANK11  BANK12  BANK13
      Params:         0       0       0       0       0       0       0       0       0       0       0       0       0       0       0
      Locals:         0       2       0       0       0       0       0       0       0       0       0       0       0       0       0
      Temps:          0       2       0       0       0       0       0       0       0       0       0       0       0       0       0
      Totals:         0       4       0       0       0       0       0       0       0       0       0       0       0       0       0
Total ram usage:        4 bytes
 Hardware stack levels used:    1
 Hardware stack levels required when called:    9
 This function calls:
		_addPacketToOutgoingQueue
 This function is called by:
		_device
 This function uses a non-reentrant model


 *************** function _addPacketToOutgoingQueue *****************
 Defined at:
		line 20 in file "packetQueueHandler.c"
 Parameters:    Size  Location     Type
  data            2    0[BANK0 ] PTR unsigned char 
		 -> ABB_1.det_arrays.info(404), ABB_1.det_arrays.UIDs(505), ABB_1.det_arrays(909), NULL(0), 
  command         1    2[BANK0 ] unsigned char 
  length          1    3[BANK0 ] unsigned char 
  destination     2    4[BANK0 ] unsigned short 
 Auto vars:     Size  Location     Type
		None
 Return value:  Size  Location     Type
                  1    wreg      void 
 Registers used:
		wreg, fsr2l, fsr2h, status,2, status,0, prodl, prodh
 Tracked objects:
		On entry : 
		On exit  : 
		Unchanged: 
 Data sizes:     COMRAM   BANK0   BANK1   BANK2   BANK3   BANK4   BANK5   BANK6   BANK7   BANK8   BANK9  BANK10  BANK11  BANK12  BANK13
      Params:         0       6       0       0       0       0       0       0       0       0       0       0       0       0       0
      Locals:         0       0       0       0       0       0       0       0       0       0       0       0       0       0       0
      Temps:          0       2       0       0       0       0       0       0       0       0       0       0       0       0       0
      Totals:         0       8       0       0       0       0       0       0       0       0       0       0       0       0       0
Total ram usage:        8 bytes
 Hardware stack levels used:    1
 Hardware stack levels required when called:    8
 This function calls:
		Nothing
 This function is called by:
		_checkStatusBits
		_programUIDs
 This function uses a non-reentrant model


 *************** function _activateBluetooth *****************
 Defined at:
		line 48 in file "bluetooth.c"
 Parameters:    Size  Location     Type
		None
 Auto vars:     Size  Location     Type
		None
 Return value:  Size  Location     Type
                  1    wreg      void 
 Registers used:
		wreg, fsr2l, fsr2h, status,2, status,0, cstack
 Tracked objects:
		On entry : 
		On exit  : 
		Unchanged: 
 Data sizes:     COMRAM   BANK0   BANK1   BANK2   BANK3   BANK4   BANK5   BANK6   BANK7   BANK8   BANK9  BANK10  BANK11  BANK12  BANK13
      Params:         0       0       0       0       0       0       0       0       0       0       0       0       0       0       0
      Locals:         0       0       0       0       0       0       0       0       0       0       0       0       0       0       0
      Temps:          0       0       0       0       0       0       0       0       0       0       0       0       0       0       0
      Totals:         0       0       0       0       0       0       0       0       0       0       0       0       0       0       0
Total ram usage:        0 bytes
 Hardware stack levels used:    1
 Hardware stack levels required when called:    9
 This function calls:
		_initialiseState
		_initialiseUART
 This function is called by:
		_device
 This function uses a non-reentrant model


 *************** function _initialiseUART *****************
 Defined at:
		line 78 in file "bluetooth.c"
 Parameters:    Size  Location     Type
		None
 Auto vars:     Size  Location     Type
		None
 Return value:  Size  Location     Type
                  1    wreg      void 
 Registers used:
		wreg, status,2
 Tracked objects:
		On entry : 
		On exit  : 
		Unchanged: 
 Data sizes:     COMRAM   BANK0   BANK1   BANK2   BANK3   BANK4   BANK5   BANK6   BANK7   BANK8   BANK9  BANK10  BANK11  BANK12  BANK13
      Params:         0       0       0       0       0       0       0       0       0       0       0       0       0       0       0
      Locals:         0       0       0       0       0       0       0       0       0       0       0       0       0       0       0
      Temps:          0       0       0       0       0       0       0       0       0       0       0       0       0       0       0
      Totals:         0       0       0       0       0       0       0       0       0       0       0       0       0       0       0
Total ram usage:        0 bytes
 Hardware stack levels used:    1
 Hardware stack levels required when called:    8
 This function calls:
		Nothing
 This function is called by:
		_activateBluetooth
 This function uses a non-reentrant model


 *************** function _initialiseState *****************
 Defined at:
		line 157 in file "initialise.c"
 Parameters:    Size  Location     Type
  specific        2    0[BANK0 ] PTR struct .
		 -> state(61), 
  number          1    2[BANK0 ] unsigned char 
 Auto vars:     Size  Location     Type
		None
 Return value:  Size  Location     Type
                  1    wreg      void 
 Registers used:
		wreg, fsr2l, fsr2h, status,2, status,0
 Tracked objects:
		On entry : 
		On exit  : 
		Unchanged: 
 Data sizes:     COMRAM   BANK0   BANK1   BANK2   BANK3   BANK4   BANK5   BANK6   BANK7   BANK8   BANK9  BANK10  BANK11  BANK12  BANK13
      Params:         0       3       0       0       0       0       0       0       0       0       0       0       0       0       0
      Locals:         0       0       0       0       0       0       0       0       0       0       0       0       0       0       0
      Temps:          0       0       0       0       0       0       0       0       0       0       0       0       0       0       0
      Totals:         0       3       0       0       0       0       0       0       0       0       0       0       0       0       0
Total ram usage:        3 bytes
 Hardware stack levels used:    1
 Hardware stack levels required when called:    8
 This function calls:
		Nothing
 This function is called by:
		_initialiseStates
		_initialiseReadSupply
		_initialiseLed
		_initialiseReadKeyCable
		_initialiseModem
		_initialiseShaftTest
		_activateBluetooth
 This function uses a non-reentrant model


 *************** function _isr *****************
 Defined at:
		line 55 in file "main.c"
 Parameters:    Size  Location     Type
		None
 Auto vars:     Size  Location     Type
		None
 Return value:  Size  Location     Type
                  1    wreg      void 
 Registers used:
		wreg, fsr1l, fsr1h, fsr2l, fsr2h, status,2, status,0, prodl, prodh, cstack
 Tracked objects:
		On entry : 
		On exit  : 
		Unchanged: 
 Data sizes:     COMRAM   BANK0   BANK1   BANK2   BANK3   BANK4   BANK5   BANK6   BANK7   BANK8   BANK9  BANK10  BANK11  BANK12  BANK13
      Params:         0       0       0       0       0       0       0       0       0       0       0       0       0       0       0
      Locals:         0       0       0       0       0       0       0       0       0       0       0       0       0       0       0
      Temps:         15       0       0       0       0       0       0       0       0       0       0       0       0       0       0
      Totals:        15       0       0       0       0       0       0       0       0       0       0       0       0       0       0
Total ram usage:       15 bytes
 Hardware stack levels used:    1
 Hardware stack levels required when called:    7
 This function calls:
		_RXReadyISRHandlerST7540
		_SPIISRHandlerST7540
		_acOr36VISR
		_msIsr
		_readEUSART
		_readTagRoutine
		_sec4OverflowIsr
		_us100DelayIsr
		_us100Isr
		_us500Isr
 This function is called by:
		Interrupt level 2
 This function uses a non-reentrant model


 *************** function _us500Isr *****************
 Defined at:
		line 24 in file "peripherals.c"
 Parameters:    Size  Location     Type
		None
 Auto vars:     Size  Location     Type
		None
 Return value:  Size  Location     Type
                  1    wreg      void 
 Registers used:
		wreg, status,2, status,0, cstack
 Tracked objects:
		On entry : 
		On exit  : 
		Unchanged: 
 Data sizes:     COMRAM   BANK0   BANK1   BANK2   BANK3   BANK4   BANK5   BANK6   BANK7   BANK8   BANK9  BANK10  BANK11  BANK12  BANK13
      Params:         0       0       0       0       0       0       0       0       0       0       0       0       0       0       0
      Locals:         0       0       0       0       0       0       0       0       0       0       0       0       0       0       0
      Temps:          0       0       0       0       0       0       0       0       0       0       0       0       0       0       0
      Totals:         0       0       0       0       0       0       0       0       0       0       0       0       0       0       0
Total ram usage:        0 bytes
 Hardware stack levels used:    1
 Hardware stack levels required when called:    2
 This function calls:
		_eddCommsIsr4
 This function is called by:
		_isr
 This function uses a non-reentrant model


 *************** function _eddCommsIsr4 *****************
 Defined at:
		line 35 in file "eddComms.c"
 Parameters:    Size  Location     Type
		None
 Auto vars:     Size  Location     Type
		None
 Return value:  Size  Location     Type
                  1    wreg      void 
 Registers used:
		wreg, status,2, status,0, cstack
 Tracked objects:
		On entry : 
		On exit  : 
		Unchanged: 
 Data sizes:     COMRAM   BANK0   BANK1   BANK2   BANK3   BANK4   BANK5   BANK6   BANK7   BANK8   BANK9  BANK10  BANK11  BANK12  BANK13
      Params:         0       0       0       0       0       0       0       0       0       0       0       0       0       0       0
      Locals:         0       0       0       0       0       0       0       0       0       0       0       0       0       0       0
      Temps:          0       0       0       0       0       0       0       0       0       0       0       0       0       0       0
      Totals:         0       0       0       0       0       0       0       0       0       0       0       0       0       0       0
Total ram usage:        0 bytes
 Hardware stack levels used:    1
 Hardware stack levels required when called:    1
 This function calls:
		i2_Set_Line_High
		i2_Set_Line_Low
 This function is called by:
		_us500Isr
 This function uses a non-reentrant model


 *************** function i2_Set_Line_Low *****************
 Defined at:
		line 113 in file "eddComms.c"
 Parameters:    Size  Location     Type
		None
 Auto vars:     Size  Location     Type
		None
 Return value:  Size  Location     Type
                  1    wreg      void 
 Registers used:
		None
 Tracked objects:
		On entry : 
		On exit  : 
		Unchanged: 
 Data sizes:     COMRAM   BANK0   BANK1   BANK2   BANK3   BANK4   BANK5   BANK6   BANK7   BANK8   BANK9  BANK10  BANK11  BANK12  BANK13
      Params:         0       0       0       0       0       0       0       0       0       0       0       0       0       0       0
      Locals:         0       0       0       0       0       0       0       0       0       0       0       0       0       0       0
      Temps:          0       0       0       0       0       0       0       0       0       0       0       0       0       0       0
      Totals:         0       0       0       0       0       0       0       0       0       0       0       0       0       0       0
Total ram usage:        0 bytes
 Hardware stack levels used:    1
 This function calls:
		Nothing
 This function is called by:
		_eddCommsIsr4
 This function uses a non-reentrant model


 *************** function i2_Set_Line_High *****************
 Defined at:
		line 109 in file "eddComms.c"
 Parameters:    Size  Location     Type
		None
 Auto vars:     Size  Location     Type
		None
 Return value:  Size  Location     Type
                  1    wreg      void 
 Registers used:
		None
 Tracked objects:
		On entry : 
		On exit  : 
		Unchanged: 
 Data sizes:     COMRAM   BANK0   BANK1   BANK2   BANK3   BANK4   BANK5   BANK6   BANK7   BANK8   BANK9  BANK10  BANK11  BANK12  BANK13
      Params:         0       0       0       0       0       0       0       0       0       0       0       0       0       0       0
      Locals:         0       0       0       0       0       0       0       0       0       0       0       0       0       0       0
      Temps:          0       0       0       0       0       0       0       0       0       0       0       0       0       0       0
      Totals:         0       0       0       0       0       0       0       0       0       0       0       0       0       0       0
Total ram usage:        0 bytes
 Hardware stack levels used:    1
 This function calls:
		Nothing
 This function is called by:
		_eddCommsIsr4
 This function uses a non-reentrant model


 *************** function _us100Isr *****************
 Defined at:
		line 88 in file "peripherals.c"
 Parameters:    Size  Location     Type
		None
 Auto vars:     Size  Location     Type
		None
 Return value:  Size  Location     Type
                  1    wreg      void 
 Registers used:
		wreg, status,2, status,0, cstack
 Tracked objects:
		On entry : 
		On exit  : 
		Unchanged: 
 Data sizes:     COMRAM   BANK0   BANK1   BANK2   BANK3   BANK4   BANK5   BANK6   BANK7   BANK8   BANK9  BANK10  BANK11  BANK12  BANK13
      Params:         0       0       0       0       0       0       0       0       0       0       0       0       0       0       0
      Locals:         0       0       0       0       0       0       0       0       0       0       0       0       0       0       0
      Temps:          0       0       0       0       0       0       0       0       0       0       0       0       0       0       0
      Totals:         0       0       0       0       0       0       0       0       0       0       0       0       0       0       0
Total ram usage:        0 bytes
 Hardware stack levels used:    1
 Hardware stack levels required when called:    1
 This function calls:
		_eddCommsIsr8
 This function is called by:
		_isr
 This function uses a non-reentrant model


 *************** function _eddCommsIsr8 *****************
 Defined at:
		line 43 in file "eddComms.c"
 Parameters:    Size  Location     Type
		None
 Auto vars:     Size  Location     Type
		None
 Return value:  Size  Location     Type
                  1    wreg      void 
 Registers used:
		wreg, status,2, status,0
 Tracked objects:
		On entry : 
		On exit  : 
		Unchanged: 
 Data sizes:     COMRAM   BANK0   BANK1   BANK2   BANK3   BANK4   BANK5   BANK6   BANK7   BANK8   BANK9  BANK10  BANK11  BANK12  BANK13
      Params:         0       0       0       0       0       0       0       0       0       0       0       0       0       0       0
      Locals:         0       0       0       0       0       0       0       0       0       0       0       0       0       0       0
      Temps:          0       0       0       0       0       0       0       0       0       0       0       0       0       0       0
      Totals:         0       0       0       0       0       0       0       0       0       0       0       0       0       0       0
Total ram usage:        0 bytes
 Hardware stack levels used:    1
 This function calls:
		Nothing
 This function is called by:
		_us100Isr
 This function uses a non-reentrant model


 *************** function _us100DelayIsr *****************
 Defined at:
		line 82 in file "peripherals.c"
 Parameters:    Size  Location     Type
		None
 Auto vars:     Size  Location     Type
		None
 Return value:  Size  Location     Type
                  1    wreg      void 
 Registers used:
		None
 Tracked objects:
		On entry : 
		On exit  : 
		Unchanged: 
 Data sizes:     COMRAM   BANK0   BANK1   BANK2   BANK3   BANK4   BANK5   BANK6   BANK7   BANK8   BANK9  BANK10  BANK11  BANK12  BANK13
      Params:         0       0       0       0       0       0       0       0       0       0       0       0       0       0       0
      Locals:         0       0       0       0       0       0       0       0       0       0       0       0       0       0       0
      Temps:          0       0       0       0       0       0       0       0       0       0       0       0       0       0       0
      Totals:         0       0       0       0       0       0       0       0       0       0       0       0       0       0       0
Total ram usage:        0 bytes
 Hardware stack levels used:    1
 This function calls:
		Nothing
 This function is called by:
		_isr
 This function uses a non-reentrant model


 *************** function _sec4OverflowIsr *****************
 Defined at:
		line 61 in file "acOr36V.c"
 Parameters:    Size  Location     Type
		None
 Auto vars:     Size  Location     Type
		None
 Return value:  Size  Location     Type
                  1    wreg      void 
 Registers used:
		wreg, fsr2l, fsr2h
 Tracked objects:
		On entry : 
		On exit  : 
		Unchanged: 
 Data sizes:     COMRAM   BANK0   BANK1   BANK2   BANK3   BANK4   BANK5   BANK6   BANK7   BANK8   BANK9  BANK10  BANK11  BANK12  BANK13
      Params:         0       0       0       0       0       0       0       0       0       0       0       0       0       0       0
      Locals:         0       0       0       0       0       0       0       0       0       0       0       0       0       0       0
      Temps:          0       0       0       0       0       0       0       0       0       0       0       0       0       0       0
      Totals:         0       0       0       0       0       0       0       0       0       0       0       0       0       0       0
Total ram usage:        0 bytes
 Hardware stack levels used:    1
 This function calls:
		Nothing
 This function is called by:
		_isr
 This function uses a non-reentrant model


 *************** function _readTagRoutine *****************
 Defined at:
		line 596 in file "tagRead.c"
 Parameters:    Size  Location     Type
		None
 Auto vars:     Size  Location     Type
  attempts        1   27[COMRAM] unsigned char 
 Return value:  Size  Location     Type
                  1    wreg      void 
 Registers used:
		wreg, fsr1l, fsr1h, fsr2l, fsr2h, status,2, status,0, prodl, prodh, cstack
 Tracked objects:
		On entry : 
		On exit  : 
		Unchanged: 
 Data sizes:     COMRAM   BANK0   BANK1   BANK2   BANK3   BANK4   BANK5   BANK6   BANK7   BANK8   BANK9  BANK10  BANK11  BANK12  BANK13
      Params:         0       0       0       0       0       0       0       0       0       0       0       0       0       0       0
      Locals:         1       0       0       0       0       0       0       0       0       0       0       0       0       0       0
      Temps:          0       0       0       0       0       0       0       0       0       0       0       0       0       0       0
      Totals:         1       0       0       0       0       0       0       0       0       0       0       0       0       0       0
Total ram usage:        1 bytes
 Hardware stack levels used:    1
 Hardware stack levels required when called:    5
 This function calls:
		_READ_TAG
		_READ_TAG_REVERSE
		_addNewTag
		_tagFor0
		_tagFor1
		i2_setBlueLed
		i2_tagForInterrupt
 This function is called by:
		_isr
 This function uses a non-reentrant model


 *************** function i2_setBlueLed *****************
 Defined at:
		line 272 in file "led.c"
 Parameters:    Size  Location     Type
		None
 Auto vars:     Size  Location     Type
		None
 Return value:  Size  Location     Type
                  1    wreg      void 
 Registers used:
		None
 Tracked objects:
		On entry : 
		On exit  : 
		Unchanged: 
 Data sizes:     COMRAM   BANK0   BANK1   BANK2   BANK3   BANK4   BANK5   BANK6   BANK7   BANK8   BANK9  BANK10  BANK11  BANK12  BANK13
      Params:         0       0       0       0       0       0       0       0       0       0       0       0       0       0       0
      Locals:         0       0       0       0       0       0       0       0       0       0       0       0       0       0       0
      Temps:          0       0       0       0       0       0       0       0       0       0       0       0       0       0       0
      Totals:         0       0       0       0       0       0       0       0       0       0       0       0       0       0       0
Total ram usage:        0 bytes
 Hardware stack levels used:    1
 This function calls:
		Nothing
 This function is called by:
		_readTagRoutine
 This function uses a non-reentrant model


 *************** function _tagFor1 *****************
 Defined at:
		line 639 in file "tagRead.c"
 Parameters:    Size  Location     Type
		None
 Auto vars:     Size  Location     Type
		None
 Return value:  Size  Location     Type
                  1    wreg      void 
 Registers used:
		wreg, status,2, status,0, cstack
 Tracked objects:
		On entry : 
		On exit  : 
		Unchanged: 
 Data sizes:     COMRAM   BANK0   BANK1   BANK2   BANK3   BANK4   BANK5   BANK6   BANK7   BANK8   BANK9  BANK10  BANK11  BANK12  BANK13
      Params:         0       0       0       0       0       0       0       0       0       0       0       0       0       0       0
      Locals:         0       0       0       0       0       0       0       0       0       0       0       0       0       0       0
      Temps:          0       0       0       0       0       0       0       0       0       0       0       0       0       0       0
      Totals:         0       0       0       0       0       0       0       0       0       0       0       0       0       0       0
Total ram usage:        0 bytes
 Hardware stack levels used:    1
 Hardware stack levels required when called:    2
 This function calls:
		i2__delay_ms
 This function is called by:
		_readTagRoutine
 This function uses a non-reentrant model


 *************** function _tagFor0 *****************
 Defined at:
		line 629 in file "tagRead.c"
 Parameters:    Size  Location     Type
		None
 Auto vars:     Size  Location     Type
		None
 Return value:  Size  Location     Type
                  1    wreg      void 
 Registers used:
		wreg, status,2, status,0, cstack
 Tracked objects:
		On entry : 
		On exit  : 
		Unchanged: 
 Data sizes:     COMRAM   BANK0   BANK1   BANK2   BANK3   BANK4   BANK5   BANK6   BANK7   BANK8   BANK9  BANK10  BANK11  BANK12  BANK13
      Params:         0       0       0       0       0       0       0       0       0       0       0       0       0       0       0
      Locals:         0       0       0       0       0       0       0       0       0       0       0       0       0       0       0
      Temps:          0       0       0       0       0       0       0       0       0       0       0       0       0       0       0
      Totals:         0       0       0       0       0       0       0       0       0       0       0       0       0       0       0
Total ram usage:        0 bytes
 Hardware stack levels used:    1
 Hardware stack levels required when called:    2
 This function calls:
		i2__delay_ms
 This function is called by:
		_readTagRoutine
 This function uses a non-reentrant model


 *************** function _addNewTag *****************
 Defined at:
		line 96 in file "tagRead.c"
 Parameters:    Size  Location     Type
		None
 Auto vars:     Size  Location     Type
  i               2   25[COMRAM] int 
 Return value:  Size  Location     Type
                  1    wreg      void 
 Registers used:
		wreg, fsr1l, fsr1h, fsr2l, fsr2h, status,2, status,0, prodl, prodh, cstack
 Tracked objects:
		On entry : 
		On exit  : 
		Unchanged: 
 Data sizes:     COMRAM   BANK0   BANK1   BANK2   BANK3   BANK4   BANK5   BANK6   BANK7   BANK8   BANK9  BANK10  BANK11  BANK12  BANK13
      Params:         0       0       0       0       0       0       0       0       0       0       0       0       0       0       0
      Locals:         2       0       0       0       0       0       0       0       0       0       0       0       0       0       0
      Temps:          5       0       0       0       0       0       0       0       0       0       0       0       0       0       0
      Totals:         7       0       0       0       0       0       0       0       0       0       0       0       0       0       0
Total ram usage:        7 bytes
 Hardware stack levels used:    1
 Hardware stack levels required when called:    2
 This function calls:
		i2_addPacketToOutgoingQueue
		i2_checkForExistingUID
 This function is called by:
		_readTagRoutine
 This function uses a non-reentrant model


 *************** function i2_checkForExistingUID *****************
 Defined at:
		line 190 in file "peripherals.c"
 Parameters:    Size  Location     Type
  receivedUID     2    6[COMRAM] PTR unsigned long 
		 -> btPacket.receive(11), btPacket(22), response(4), TAG_Response(10), 
 Auto vars:     Size  Location     Type
  checkForExis    2   18[COMRAM] int 
  checkForExis    2   16[COMRAM] PTR unsigned long 
		 -> ABB_1.det_arrays.UIDs.UID(4), ABB_1.det_arrays.UIDs(505), 
 Return value:  Size  Location     Type
                  1    wreg      unsigned char 
 Registers used:
		wreg, fsr1l, fsr1h, fsr2l, fsr2h, status,2, status,0, prodl, prodh, cstack
 Tracked objects:
		On entry : 
		On exit  : 
		Unchanged: 
 Data sizes:     COMRAM   BANK0   BANK1   BANK2   BANK3   BANK4   BANK5   BANK6   BANK7   BANK8   BANK9  BANK10  BANK11  BANK12  BANK13
      Params:         2       0       0       0       0       0       0       0       0       0       0       0       0       0       0
      Locals:         4       0       0       0       0       0       0       0       0       0       0       0       0       0       0
      Temps:          8       0       0       0       0       0       0       0       0       0       0       0       0       0       0
      Totals:        14       0       0       0       0       0       0       0       0       0       0       0       0       0       0
Total ram usage:       14 bytes
 Hardware stack levels used:    1
 Hardware stack levels required when called:    1
 This function calls:
		i2___wmul
 This function is called by:
		_addNewTag
 This function uses a non-reentrant model


 *************** function i2___wmul *****************
 Defined at:
		line 15 in file "C:\Program Files (x86)\Microchip\xc8\v1.41\sources\common\Umul16.c"
 Parameters:    Size  Location     Type
  multiplier      2    0[COMRAM] unsigned int 
  multiplicand    2    2[COMRAM] unsigned int 
 Auto vars:     Size  Location     Type
  __wmul          2    4[COMRAM] unsigned int 
 Return value:  Size  Location     Type
                  2    0[COMRAM] unsigned int 
 Registers used:
		wreg, status,2, status,0, prodl, prodh
 Tracked objects:
		On entry : 
		On exit  : 
		Unchanged: 
 Data sizes:     COMRAM   BANK0   BANK1   BANK2   BANK3   BANK4   BANK5   BANK6   BANK7   BANK8   BANK9  BANK10  BANK11  BANK12  BANK13
      Params:         4       0       0       0       0       0       0       0       0       0       0       0       0       0       0
      Locals:         2       0       0       0       0       0       0       0       0       0       0       0       0       0       0
      Temps:          0       0       0       0       0       0       0       0       0       0       0       0       0       0       0
      Totals:         6       0       0       0       0       0       0       0       0       0       0       0       0       0       0
Total ram usage:        6 bytes
 Hardware stack levels used:    1
 This function calls:
		Nothing
 This function is called by:
		i2_checkForExistingUID
 This function uses a non-reentrant model


 *************** function i2_addPacketToOutgoingQueue *****************
 Defined at:
		line 20 in file "packetQueueHandler.c"
 Parameters:    Size  Location     Type
  data            2    0[COMRAM] PTR unsigned char 
		 -> ABB_1.det_arrays.info(404), ABB_1.det_arrays.UIDs(505), ABB_1.det_arrays(909), NULL(0), 
  command         1    2[COMRAM] unsigned char 
  length          1    3[COMRAM] unsigned char 
  destination     2    4[COMRAM] unsigned short 
 Auto vars:     Size  Location     Type
		None
 Return value:  Size  Location     Type
                  1    wreg      void 
 Registers used:
		wreg, fsr2l, fsr2h, status,2, status,0, prodl, prodh
 Tracked objects:
		On entry : 
		On exit  : 
		Unchanged: 
 Data sizes:     COMRAM   BANK0   BANK1   BANK2   BANK3   BANK4   BANK5   BANK6   BANK7   BANK8   BANK9  BANK10  BANK11  BANK12  BANK13
      Params:         6       0       0       0       0       0       0       0       0       0       0       0       0       0       0
      Locals:         0       0       0       0       0       0       0       0       0       0       0       0       0       0       0
      Temps:          2       0       0       0       0       0       0       0       0       0       0       0       0       0       0
      Totals:         8       0       0       0       0       0       0       0       0       0       0       0       0       0       0
Total ram usage:        8 bytes
 Hardware stack levels used:    1
 This function calls:
		Nothing
 This function is called by:
		_addNewTag
 This function uses a non-reentrant model


 *************** function _READ_TAG_REVERSE *****************
 Defined at:
		line 574 in file "tagRead.c"
 Parameters:    Size  Location     Type
		None
 Auto vars:     Size  Location     Type
  i               2   12[COMRAM] int 
 Return value:  Size  Location     Type
                  1    wreg      unsigned char 
 Registers used:
		wreg, fsr2l, fsr2h, status,2, status,0, cstack
 Tracked objects:
		On entry : 
		On exit  : 
		Unchanged: 
 Data sizes:     COMRAM   BANK0   BANK1   BANK2   BANK3   BANK4   BANK5   BANK6   BANK7   BANK8   BANK9  BANK10  BANK11  BANK12  BANK13
      Params:         0       0       0       0       0       0       0       0       0       0       0       0       0       0       0
      Locals:         2       0       0       0       0       0       0       0       0       0       0       0       0       0       0
      Temps:          0       0       0       0       0       0       0       0       0       0       0       0       0       0       0
      Totals:         2       0       0       0       0       0       0       0       0       0       0       0       0       0       0
Total ram usage:        2 bytes
 Hardware stack levels used:    1
 Hardware stack levels required when called:    4
 This function calls:
		_CHECK_CRC16
		_SCAN_TAG_1
		_initialiseTagADC_1
 This function is called by:
		_readTagRoutine
 This function uses a non-reentrant model


 *************** function _initialiseTagADC_1 *****************
 Defined at:
		line 538 in file "tagRead.c"
 Parameters:    Size  Location     Type
		None
 Auto vars:     Size  Location     Type
		None
 Return value:  Size  Location     Type
                  1    wreg      void 
 Registers used:
		wreg, status,2, status,0, cstack
 Tracked objects:
		On entry : 
		On exit  : 
		Unchanged: 
 Data sizes:     COMRAM   BANK0   BANK1   BANK2   BANK3   BANK4   BANK5   BANK6   BANK7   BANK8   BANK9  BANK10  BANK11  BANK12  BANK13
      Params:         0       0       0       0       0       0       0       0       0       0       0       0       0       0       0
      Locals:         0       0       0       0       0       0       0       0       0       0       0       0       0       0       0
      Temps:          0       0       0       0       0       0       0       0       0       0       0       0       0       0       0
      Totals:         0       0       0       0       0       0       0       0       0       0       0       0       0       0       0
Total ram usage:        0 bytes
 Hardware stack levels used:    1
 Hardware stack levels required when called:    1
 This function calls:
		i2__delay_us
 This function is called by:
		_READ_TAG_REVERSE
 This function uses a non-reentrant model


 *************** function _SCAN_TAG_1 *****************
 Defined at:
		line 192 in file "tagRead.c"
 Parameters:    Size  Location     Type
		None
 Auto vars:     Size  Location     Type
		None
 Return value:  Size  Location     Type
                  2    8[COMRAM] unsigned int 
 Registers used:
		wreg, status,2, status,0, cstack
 Tracked objects:
		On entry : 
		On exit  : 
		Unchanged: 
 Data sizes:     COMRAM   BANK0   BANK1   BANK2   BANK3   BANK4   BANK5   BANK6   BANK7   BANK8   BANK9  BANK10  BANK11  BANK12  BANK13
      Params:         2       0       0       0       0       0       0       0       0       0       0       0       0       0       0
      Locals:         0       0       0       0       0       0       0       0       0       0       0       0       0       0       0
      Temps:          1       0       0       0       0       0       0       0       0       0       0       0       0       0       0
      Totals:         3       0       0       0       0       0       0       0       0       0       0       0       0       0       0
Total ram usage:        3 bytes
 Hardware stack levels used:    1
 Hardware stack levels required when called:    3
 This function calls:
		_UIO_MAK_1
		_UIO_SAK_1
		_UIO_WRITE_1
		_UIO_noMAK_1
		_rxWord
		i2__delay_ms
		i2__delay_us
 This function is called by:
		_READ_TAG_REVERSE
 This function uses a non-reentrant model


 *************** function _UIO_noMAK_1 *****************
 Defined at:
		line 415 in file "tagRead.c"
 Parameters:    Size  Location     Type
		None
 Auto vars:     Size  Location     Type
		None
 Return value:  Size  Location     Type
                  1    wreg      void 
 Registers used:
		wreg, status,2, status,0, cstack
 Tracked objects:
		On entry : 
		On exit  : 
		Unchanged: 
 Data sizes:     COMRAM   BANK0   BANK1   BANK2   BANK3   BANK4   BANK5   BANK6   BANK7   BANK8   BANK9  BANK10  BANK11  BANK12  BANK13
      Params:         0       0       0       0       0       0       0       0       0       0       0       0       0       0       0
      Locals:         0       0       0       0       0       0       0       0       0       0       0       0       0       0       0
      Temps:          0       0       0       0       0       0       0       0       0       0       0       0       0       0       0
      Totals:         0       0       0       0       0       0       0       0       0       0       0       0       0       0       0
Total ram usage:        0 bytes
 Hardware stack levels used:    1
 Hardware stack levels required when called:    1
 This function calls:
		i2__delay_us
 This function is called by:
		_SCAN_TAG_1
 This function uses a non-reentrant model


 *************** function _UIO_WRITE_1 *****************
 Defined at:
		line 306 in file "tagRead.c"
 Parameters:    Size  Location     Type
  cmd             1    wreg     unsigned char 
 Auto vars:     Size  Location     Type
  cmd             1    3[COMRAM] unsigned char 
  nDigit          1    5[COMRAM] unsigned char 
  uio_data        1    4[COMRAM] unsigned char 
 Return value:  Size  Location     Type
                  1    wreg      void 
 Registers used:
		wreg, status,2, status,0, cstack
 Tracked objects:
		On entry : 
		On exit  : 
		Unchanged: 
 Data sizes:     COMRAM   BANK0   BANK1   BANK2   BANK3   BANK4   BANK5   BANK6   BANK7   BANK8   BANK9  BANK10  BANK11  BANK12  BANK13
      Params:         0       0       0       0       0       0       0       0       0       0       0       0       0       0       0
      Locals:         3       0       0       0       0       0       0       0       0       0       0       0       0       0       0
      Temps:          2       0       0       0       0       0       0       0       0       0       0       0       0       0       0
      Totals:         5       0       0       0       0       0       0       0       0       0       0       0       0       0       0
Total ram usage:        5 bytes
 Hardware stack levels used:    1
 Hardware stack levels required when called:    1
 This function calls:
		i2__delay_us
 This function is called by:
		_SCAN_TAG_1
 This function uses a non-reentrant model


 *************** function _UIO_SAK_1 *****************
 Defined at:
		line 364 in file "tagRead.c"
 Parameters:    Size  Location     Type
		None
 Auto vars:     Size  Location     Type
  SAK             1    1[COMRAM] unsigned char 
 Return value:  Size  Location     Type
                  1    wreg      unsigned char 
 Registers used:
		wreg, status,2, status,0, cstack
 Tracked objects:
		On entry : 
		On exit  : 
		Unchanged: 
 Data sizes:     COMRAM   BANK0   BANK1   BANK2   BANK3   BANK4   BANK5   BANK6   BANK7   BANK8   BANK9  BANK10  BANK11  BANK12  BANK13
      Params:         0       0       0       0       0       0       0       0       0       0       0       0       0       0       0
      Locals:         1       0       0       0       0       0       0       0       0       0       0       0       0       0       0
      Temps:          0       0       0       0       0       0       0       0       0       0       0       0       0       0       0
      Totals:         1       0       0       0       0       0       0       0       0       0       0       0       0       0       0
Total ram usage:        1 bytes
 Hardware stack levels used:    1
 Hardware stack levels required when called:    1
 This function calls:
		i2__delay_us
 This function is called by:
		_SCAN_TAG_1
 This function uses a non-reentrant model


 *************** function _UIO_MAK_1 *****************
 Defined at:
		line 395 in file "tagRead.c"
 Parameters:    Size  Location     Type
		None
 Auto vars:     Size  Location     Type
		None
 Return value:  Size  Location     Type
                  1    wreg      void 
 Registers used:
		wreg, status,2, status,0, cstack
 Tracked objects:
		On entry : 
		On exit  : 
		Unchanged: 
 Data sizes:     COMRAM   BANK0   BANK1   BANK2   BANK3   BANK4   BANK5   BANK6   BANK7   BANK8   BANK9  BANK10  BANK11  BANK12  BANK13
      Params:         0       0       0       0       0       0       0       0       0       0       0       0       0       0       0
      Locals:         0       0       0       0       0       0       0       0       0       0       0       0       0       0       0
      Temps:          0       0       0       0       0       0       0       0       0       0       0       0       0       0       0
      Totals:         0       0       0       0       0       0       0       0       0       0       0       0       0       0       0
Total ram usage:        0 bytes
 Hardware stack levels used:    1
 Hardware stack levels required when called:    1
 This function calls:
		i2__delay_us
 This function is called by:
		_SCAN_TAG_1
 This function uses a non-reentrant model


 *************** function _READ_TAG *****************
 Defined at:
		line 552 in file "tagRead.c"
 Parameters:    Size  Location     Type
		None
 Auto vars:     Size  Location     Type
  i               2   12[COMRAM] int 
 Return value:  Size  Location     Type
                  1    wreg      unsigned char 
 Registers used:
		wreg, fsr2l, fsr2h, status,2, status,0, cstack
 Tracked objects:
		On entry : 
		On exit  : 
		Unchanged: 
 Data sizes:     COMRAM   BANK0   BANK1   BANK2   BANK3   BANK4   BANK5   BANK6   BANK7   BANK8   BANK9  BANK10  BANK11  BANK12  BANK13
      Params:         0       0       0       0       0       0       0       0       0       0       0       0       0       0       0
      Locals:         2       0       0       0       0       0       0       0       0       0       0       0       0       0       0
      Temps:          0       0       0       0       0       0       0       0       0       0       0       0       0       0       0
      Totals:         2       0       0       0       0       0       0       0       0       0       0       0       0       0       0
Total ram usage:        2 bytes
 Hardware stack levels used:    1
 Hardware stack levels required when called:    4
 This function calls:
		_CHECK_CRC16
		_SCAN_TAG
		_initialiseTagADC
 This function is called by:
		_readTagRoutine
 This function uses a non-reentrant model


 *************** function _initialiseTagADC *****************
 Defined at:
		line 523 in file "tagRead.c"
 Parameters:    Size  Location     Type
		None
 Auto vars:     Size  Location     Type
		None
 Return value:  Size  Location     Type
                  1    wreg      void 
 Registers used:
		wreg, status,2, status,0, cstack
 Tracked objects:
		On entry : 
		On exit  : 
		Unchanged: 
 Data sizes:     COMRAM   BANK0   BANK1   BANK2   BANK3   BANK4   BANK5   BANK6   BANK7   BANK8   BANK9  BANK10  BANK11  BANK12  BANK13
      Params:         0       0       0       0       0       0       0       0       0       0       0       0       0       0       0
      Locals:         0       0       0       0       0       0       0       0       0       0       0       0       0       0       0
      Temps:          0       0       0       0       0       0       0       0       0       0       0       0       0       0       0
      Totals:         0       0       0       0       0       0       0       0       0       0       0       0       0       0       0
Total ram usage:        0 bytes
 Hardware stack levels used:    1
 Hardware stack levels required when called:    1
 This function calls:
		i2__delay_us
 This function is called by:
		_READ_TAG
 This function uses a non-reentrant model


 *************** function _SCAN_TAG *****************
 Defined at:
		line 110 in file "tagRead.c"
 Parameters:    Size  Location     Type
		None
 Auto vars:     Size  Location     Type
		None
 Return value:  Size  Location     Type
                  2    8[COMRAM] unsigned int 
 Registers used:
		wreg, status,2, status,0, cstack
 Tracked objects:
		On entry : 
		On exit  : 
		Unchanged: 
 Data sizes:     COMRAM   BANK0   BANK1   BANK2   BANK3   BANK4   BANK5   BANK6   BANK7   BANK8   BANK9  BANK10  BANK11  BANK12  BANK13
      Params:         2       0       0       0       0       0       0       0       0       0       0       0       0       0       0
      Locals:         0       0       0       0       0       0       0       0       0       0       0       0       0       0       0
      Temps:          1       0       0       0       0       0       0       0       0       0       0       0       0       0       0
      Totals:         3       0       0       0       0       0       0       0       0       0       0       0       0       0       0
Total ram usage:        3 bytes
 Hardware stack levels used:    1
 Hardware stack levels required when called:    3
 This function calls:
		_UIO_MAK
		_UIO_SAK
		_UIO_WRITE
		_UIO_noMAK
		_rxWord
		i2__delay_ms
		i2__delay_us
 This function is called by:
		_READ_TAG
 This function uses a non-reentrant model


 *************** function _rxWord *****************
 Defined at:
		line 456 in file "tagRead.c"
 Parameters:    Size  Location     Type
		None
 Auto vars:     Size  Location     Type
  watch           1    7[COMRAM] unsigned char 
  eddReadState    1    6[COMRAM] unsigned char 
  word            1    5[COMRAM] unsigned char 
  halfBits        1    4[COMRAM] unsigned char 
 Return value:  Size  Location     Type
                  1    wreg      unsigned char 
 Registers used:
		wreg, status,2, status,0, cstack
 Tracked objects:
		On entry : 
		On exit  : 
		Unchanged: 
 Data sizes:     COMRAM   BANK0   BANK1   BANK2   BANK3   BANK4   BANK5   BANK6   BANK7   BANK8   BANK9  BANK10  BANK11  BANK12  BANK13
      Params:         0       0       0       0       0       0       0       0       0       0       0       0       0       0       0
      Locals:         4       0       0       0       0       0       0       0       0       0       0       0       0       0       0
      Temps:          0       0       0       0       0       0       0       0       0       0       0       0       0       0       0
      Totals:         4       0       0       0       0       0       0       0       0       0       0       0       0       0       0
Total ram usage:        4 bytes
 Hardware stack levels used:    1
 Hardware stack levels required when called:    2
 This function calls:
		_detectFallingEdge
		_detectRisingEdge
		i2__delay_us
 This function is called by:
		_SCAN_TAG
		_SCAN_TAG_1
 This function uses a non-reentrant model


 *************** function _detectRisingEdge *****************
 Defined at:
		line 507 in file "tagRead.c"
 Parameters:    Size  Location     Type
		None
 Auto vars:     Size  Location     Type
  currentTagAD    2    2[COMRAM] unsigned short 
 Return value:  Size  Location     Type
                  1    wreg      unsigned char 
 Registers used:
		wreg, status,2, status,0, cstack
 Tracked objects:
		On entry : 
		On exit  : 
		Unchanged: 
 Data sizes:     COMRAM   BANK0   BANK1   BANK2   BANK3   BANK4   BANK5   BANK6   BANK7   BANK8   BANK9  BANK10  BANK11  BANK12  BANK13
      Params:         0       0       0       0       0       0       0       0       0       0       0       0       0       0       0
      Locals:         2       0       0       0       0       0       0       0       0       0       0       0       0       0       0
      Temps:          0       0       0       0       0       0       0       0       0       0       0       0       0       0       0
      Totals:         2       0       0       0       0       0       0       0       0       0       0       0       0       0       0
Total ram usage:        2 bytes
 Hardware stack levels used:    1
 Hardware stack levels required when called:    1
 This function calls:
		_readTagADC
 This function is called by:
		_rxWord
 This function uses a non-reentrant model


 *************** function _detectFallingEdge *****************
 Defined at:
		line 499 in file "tagRead.c"
 Parameters:    Size  Location     Type
		None
 Auto vars:     Size  Location     Type
  currentTagAD    2    2[COMRAM] unsigned short 
 Return value:  Size  Location     Type
                  1    wreg      unsigned char 
 Registers used:
		wreg, status,2, status,0, cstack
 Tracked objects:
		On entry : 
		On exit  : 
		Unchanged: 
 Data sizes:     COMRAM   BANK0   BANK1   BANK2   BANK3   BANK4   BANK5   BANK6   BANK7   BANK8   BANK9  BANK10  BANK11  BANK12  BANK13
      Params:         0       0       0       0       0       0       0       0       0       0       0       0       0       0       0
      Locals:         2       0       0       0       0       0       0       0       0       0       0       0       0       0       0
      Temps:          0       0       0       0       0       0       0       0       0       0       0       0       0       0       0
      Totals:         2       0       0       0       0       0       0       0       0       0       0       0       0       0       0
Total ram usage:        2 bytes
 Hardware stack levels used:    1
 Hardware stack levels required when called:    1
 This function calls:
		_readTagADC
 This function is called by:
		_rxWord
 This function uses a non-reentrant model


 *************** function _readTagADC *****************
 Defined at:
		line 515 in file "tagRead.c"
 Parameters:    Size  Location     Type
		None
 Auto vars:     Size  Location     Type
		None
 Return value:  Size  Location     Type
                  2    0[COMRAM] unsigned short 
 Registers used:
		wreg, status,2
 Tracked objects:
		On entry : 
		On exit  : 
		Unchanged: 
 Data sizes:     COMRAM   BANK0   BANK1   BANK2   BANK3   BANK4   BANK5   BANK6   BANK7   BANK8   BANK9  BANK10  BANK11  BANK12  BANK13
      Params:         2       0       0       0       0       0       0       0       0       0       0       0       0       0       0
      Locals:         0       0       0       0       0       0       0       0       0       0       0       0       0       0       0
      Temps:          0       0       0       0       0       0       0       0       0       0       0       0       0       0       0
      Totals:         2       0       0       0       0       0       0       0       0       0       0       0       0       0       0
Total ram usage:        2 bytes
 Hardware stack levels used:    1
 This function calls:
		Nothing
 This function is called by:
		_detectFallingEdge
		_detectRisingEdge
 This function uses a non-reentrant model


 *************** function _UIO_noMAK *****************
 Defined at:
		line 407 in file "tagRead.c"
 Parameters:    Size  Location     Type
		None
 Auto vars:     Size  Location     Type
		None
 Return value:  Size  Location     Type
                  1    wreg      void 
 Registers used:
		wreg, status,2, status,0, cstack
 Tracked objects:
		On entry : 
		On exit  : 
		Unchanged: 
 Data sizes:     COMRAM   BANK0   BANK1   BANK2   BANK3   BANK4   BANK5   BANK6   BANK7   BANK8   BANK9  BANK10  BANK11  BANK12  BANK13
      Params:         0       0       0       0       0       0       0       0       0       0       0       0       0       0       0
      Locals:         0       0       0       0       0       0       0       0       0       0       0       0       0       0       0
      Temps:          0       0       0       0       0       0       0       0       0       0       0       0       0       0       0
      Totals:         0       0       0       0       0       0       0       0       0       0       0       0       0       0       0
Total ram usage:        0 bytes
 Hardware stack levels used:    1
 Hardware stack levels required when called:    1
 This function calls:
		i2__delay_us
 This function is called by:
		_SCAN_TAG
 This function uses a non-reentrant model


 *************** function _UIO_WRITE *****************
 Defined at:
		line 275 in file "tagRead.c"
 Parameters:    Size  Location     Type
  cmd             1    wreg     unsigned char 
 Auto vars:     Size  Location     Type
  cmd             1    3[COMRAM] unsigned char 
  nDigit          1    5[COMRAM] unsigned char 
  uio_data        1    4[COMRAM] unsigned char 
 Return value:  Size  Location     Type
                  1    wreg      void 
 Registers used:
		wreg, status,2, status,0, cstack
 Tracked objects:
		On entry : 
		On exit  : 
		Unchanged: 
 Data sizes:     COMRAM   BANK0   BANK1   BANK2   BANK3   BANK4   BANK5   BANK6   BANK7   BANK8   BANK9  BANK10  BANK11  BANK12  BANK13
      Params:         0       0       0       0       0       0       0       0       0       0       0       0       0       0       0
      Locals:         3       0       0       0       0       0       0       0       0       0       0       0       0       0       0
      Temps:          2       0       0       0       0       0       0       0       0       0       0       0       0       0       0
      Totals:         5       0       0       0       0       0       0       0       0       0       0       0       0       0       0
Total ram usage:        5 bytes
 Hardware stack levels used:    1
 Hardware stack levels required when called:    1
 This function calls:
		i2__delay_us
 This function is called by:
		_SCAN_TAG
 This function uses a non-reentrant model


 *************** function _UIO_SAK *****************
 Defined at:
		line 341 in file "tagRead.c"
 Parameters:    Size  Location     Type
		None
 Auto vars:     Size  Location     Type
  SAK             1    1[COMRAM] unsigned char 
 Return value:  Size  Location     Type
                  1    wreg      unsigned char 
 Registers used:
		wreg, status,2, status,0, cstack
 Tracked objects:
		On entry : 
		On exit  : 
		Unchanged: 
 Data sizes:     COMRAM   BANK0   BANK1   BANK2   BANK3   BANK4   BANK5   BANK6   BANK7   BANK8   BANK9  BANK10  BANK11  BANK12  BANK13
      Params:         0       0       0       0       0       0       0       0       0       0       0       0       0       0       0
      Locals:         1       0       0       0       0       0       0       0       0       0       0       0       0       0       0
      Temps:          0       0       0       0       0       0       0       0       0       0       0       0       0       0       0
      Totals:         1       0       0       0       0       0       0       0       0       0       0       0       0       0       0
Total ram usage:        1 bytes
 Hardware stack levels used:    1
 Hardware stack levels required when called:    1
 This function calls:
		i2__delay_us
 This function is called by:
		_SCAN_TAG
 This function uses a non-reentrant model


 *************** function _UIO_MAK *****************
 Defined at:
		line 387 in file "tagRead.c"
 Parameters:    Size  Location     Type
		None
 Auto vars:     Size  Location     Type
		None
 Return value:  Size  Location     Type
                  1    wreg      void 
 Registers used:
		wreg, status,2, status,0, cstack
 Tracked objects:
		On entry : 
		On exit  : 
		Unchanged: 
 Data sizes:     COMRAM   BANK0   BANK1   BANK2   BANK3   BANK4   BANK5   BANK6   BANK7   BANK8   BANK9  BANK10  BANK11  BANK12  BANK13
      Params:         0       0       0       0       0       0       0       0       0       0       0       0       0       0       0
      Locals:         0       0       0       0       0       0       0       0       0       0       0       0       0       0       0
      Temps:          0       0       0       0       0       0       0       0       0       0       0       0       0       0       0
      Totals:         0       0       0       0       0       0       0       0       0       0       0       0       0       0       0
Total ram usage:        0 bytes
 Hardware stack levels used:    1
 Hardware stack levels required when called:    1
 This function calls:
		i2__delay_us
 This function is called by:
		_SCAN_TAG
 This function uses a non-reentrant model


 *************** function _CHECK_CRC16 *****************
 Defined at:
		line 423 in file "tagRead.c"
 Parameters:    Size  Location     Type
		None
 Auto vars:     Size  Location     Type
  crc             2   10[COMRAM] unsigned short 
 Return value:  Size  Location     Type
                  1    wreg      unsigned char 
 Registers used:
		wreg, fsr2l, fsr2h, status,2, status,0, cstack
 Tracked objects:
		On entry : 
		On exit  : 
		Unchanged: 
 Data sizes:     COMRAM   BANK0   BANK1   BANK2   BANK3   BANK4   BANK5   BANK6   BANK7   BANK8   BANK9  BANK10  BANK11  BANK12  BANK13
      Params:         0       0       0       0       0       0       0       0       0       0       0       0       0       0       0
      Locals:         2       0       0       0       0       0       0       0       0       0       0       0       0       0       0
      Temps:          0       0       0       0       0       0       0       0       0       0       0       0       0       0       0
      Totals:         2       0       0       0       0       0       0       0       0       0       0       0       0       0       0
Total ram usage:        2 bytes
 Hardware stack levels used:    1
 Hardware stack levels required when called:    1
 This function calls:
		_calcrc
 This function is called by:
		_READ_TAG
		_READ_TAG_REVERSE
 This function uses a non-reentrant model


 *************** function _calcrc *****************
 Defined at:
		line 435 in file "tagRead.c"
 Parameters:    Size  Location     Type
  ptr             2    0[COMRAM] PTR unsigned char 
		 -> TAG_Response(10), 
  count           2    2[COMRAM] int 
 Auto vars:     Size  Location     Type
  crc             2    8[COMRAM] unsigned int 
  i               1    7[COMRAM] unsigned char 
 Return value:  Size  Location     Type
                  2    0[COMRAM] unsigned int 
 Registers used:
		wreg, fsr2l, fsr2h, status,2, status,0
 Tracked objects:
		On entry : 
		On exit  : 
		Unchanged: 
 Data sizes:     COMRAM   BANK0   BANK1   BANK2   BANK3   BANK4   BANK5   BANK6   BANK7   BANK8   BANK9  BANK10  BANK11  BANK12  BANK13
      Params:         4       0       0       0       0       0       0       0       0       0       0       0       0       0       0
      Locals:         3       0       0       0       0       0       0       0       0       0       0       0       0       0       0
      Temps:          3       0       0       0       0       0       0       0       0       0       0       0       0       0       0
      Totals:        10       0       0       0       0       0       0       0       0       0       0       0       0       0       0
Total ram usage:       10 bytes
 Hardware stack levels used:    1
 This function calls:
		Nothing
 This function is called by:
		_CHECK_CRC16
 This function uses a non-reentrant model


 *************** function _readEUSART *****************
 Defined at:
		line 124 in file "bluetooth.c"
 Parameters:    Size  Location     Type
		None
 Auto vars:     Size  Location     Type
		None
 Return value:  Size  Location     Type
                  1    wreg      void 
 Registers used:
		wreg, fsr2l, fsr2h, status,2, status,0, prodl, prodh, cstack
 Tracked objects:
		On entry : 
		On exit  : 
		Unchanged: 
 Data sizes:     COMRAM   BANK0   BANK1   BANK2   BANK3   BANK4   BANK5   BANK6   BANK7   BANK8   BANK9  BANK10  BANK11  BANK12  BANK13
      Params:         0       0       0       0       0       0       0       0       0       0       0       0       0       0       0
      Locals:         0       0       0       0       0       0       0       0       0       0       0       0       0       0       0
      Temps:          0       0       0       0       0       0       0       0       0       0       0       0       0       0       0
      Totals:         0       0       0       0       0       0       0       0       0       0       0       0       0       0       0
Total ram usage:        0 bytes
 Hardware stack levels used:    1
 Hardware stack levels required when called:    1
 This function calls:
		_receiveBluetooth
		_receiveBluetoothSetup
 This function is called by:
		_isr
 This function uses a non-reentrant model


 *************** function _receiveBluetoothSetup *****************
 Defined at:
		line 440 in file "bluetooth.c"
 Parameters:    Size  Location     Type
		None
 Auto vars:     Size  Location     Type
		None
 Return value:  Size  Location     Type
                  1    wreg      void 
 Registers used:
		wreg, fsr2l, fsr2h, status,2, status,0, prodl, prodh
 Tracked objects:
		On entry : 
		On exit  : 
		Unchanged: 
 Data sizes:     COMRAM   BANK0   BANK1   BANK2   BANK3   BANK4   BANK5   BANK6   BANK7   BANK8   BANK9  BANK10  BANK11  BANK12  BANK13
      Params:         0       0       0       0       0       0       0       0       0       0       0       0       0       0       0
      Locals:         0       0       0       0       0       0       0       0       0       0       0       0       0       0       0
      Temps:          0       0       0       0       0       0       0       0       0       0       0       0       0       0       0
      Totals:         0       0       0       0       0       0       0       0       0       0       0       0       0       0       0
Total ram usage:        0 bytes
 Hardware stack levels used:    1
 This function calls:
		Nothing
 This function is called by:
		_readEUSART
 This function uses a non-reentrant model


 *************** function _receiveBluetooth *****************
 Defined at:
		line 454 in file "bluetooth.c"
 Parameters:    Size  Location     Type
		None
 Auto vars:     Size  Location     Type
		None
 Return value:  Size  Location     Type
                  1    wreg      void 
 Registers used:
		wreg, fsr2l, fsr2h, status,2, status,0, prodl, prodh
 Tracked objects:
		On entry : 
		On exit  : 
		Unchanged: 
 Data sizes:     COMRAM   BANK0   BANK1   BANK2   BANK3   BANK4   BANK5   BANK6   BANK7   BANK8   BANK9  BANK10  BANK11  BANK12  BANK13
      Params:         0       0       0       0       0       0       0       0       0       0       0       0       0       0       0
      Locals:         0       0       0       0       0       0       0       0       0       0       0       0       0       0       0
      Temps:          6       0       0       0       0       0       0       0       0       0       0       0       0       0       0
      Totals:         6       0       0       0       0       0       0       0       0       0       0       0       0       0       0
Total ram usage:        6 bytes
 Hardware stack levels used:    1
 This function calls:
		Nothing
 This function is called by:
		_readEUSART
 This function uses a non-reentrant model


 *************** function _msIsr *****************
 Defined at:
		line 31 in file "peripherals.c"
 Parameters:    Size  Location     Type
		None
 Auto vars:     Size  Location     Type
		None
 Return value:  Size  Location     Type
                  1    wreg      void 
 Registers used:
		wreg, fsr1l, fsr1h, fsr2l, fsr2h, status,2, status,0, prodl, prodh, cstack
 Tracked objects:
		On entry : 
		On exit  : 
		Unchanged: 
 Data sizes:     COMRAM   BANK0   BANK1   BANK2   BANK3   BANK4   BANK5   BANK6   BANK7   BANK8   BANK9  BANK10  BANK11  BANK12  BANK13
      Params:         0       0       0       0       0       0       0       0       0       0       0       0       0       0       0
      Locals:         0       0       0       0       0       0       0       0       0       0       0       0       0       0       0
      Temps:          0       0       0       0       0       0       0       0       0       0       0       0       0       0       0
      Totals:         0       0       0       0       0       0       0       0       0       0       0       0       0       0       0
Total ram usage:        0 bytes
 Hardware stack levels used:    1
 Hardware stack levels required when called:    3
 This function calls:
		_checkOutgoingMessages
		_stateCounterHandler
 This function is called by:
		_isr
 This function uses a non-reentrant model


 *************** function _stateCounterHandler *****************
 Defined at:
		line 122 in file "currentStateHandler.c"
 Parameters:    Size  Location     Type
		None
 Auto vars:     Size  Location     Type
		None
 Return value:  Size  Location     Type
                  1    wreg      void 
 Registers used:
		wreg, fsr1l, fsr1h, fsr2l, fsr2h, status,2, status,0, prodl, prodh, cstack
 Tracked objects:
		On entry : 
		On exit  : 
		Unchanged: 
 Data sizes:     COMRAM   BANK0   BANK1   BANK2   BANK3   BANK4   BANK5   BANK6   BANK7   BANK8   BANK9  BANK10  BANK11  BANK12  BANK13
      Params:         0       0       0       0       0       0       0       0       0       0       0       0       0       0       0
      Locals:         0       0       0       0       0       0       0       0       0       0       0       0       0       0       0
      Temps:          0       0       0       0       0       0       0       0       0       0       0       0       0       0       0
      Totals:         0       0       0       0       0       0       0       0       0       0       0       0       0       0       0
Total ram usage:        0 bytes
 Hardware stack levels used:    1
 Hardware stack levels required when called:    2
 This function calls:
		_checkCounter
 This function is called by:
		_msIsr
 This function uses a non-reentrant model


 *************** function _checkCounter *****************
 Defined at:
		line 157 in file "currentStateHandler.c"
 Parameters:    Size  Location     Type
  specific        2    0[COMRAM] PTR struct .
		 -> state(61), 
 Auto vars:     Size  Location     Type
		None
 Return value:  Size  Location     Type
                  1    wreg      void 
 Registers used:
		wreg, fsr1l, fsr1h, fsr2l, fsr2h, status,2, status,0, prodl, prodh, cstack
 Tracked objects:
		On entry : 
		On exit  : 
		Unchanged: 
 Data sizes:     COMRAM   BANK0   BANK1   BANK2   BANK3   BANK4   BANK5   BANK6   BANK7   BANK8   BANK9  BANK10  BANK11  BANK12  BANK13
      Params:         2       0       0       0       0       0       0       0       0       0       0       0       0       0       0
      Locals:         0       0       0       0       0       0       0       0       0       0       0       0       0       0       0
      Temps:          2       0       0       0       0       0       0       0       0       0       0       0       0       0       0
      Totals:         4       0       0       0       0       0       0       0       0       0       0       0       0       0       0
Total ram usage:        4 bytes
 Hardware stack levels used:    1
 Hardware stack levels required when called:    1
 This function calls:
		_updateStateIds
 This function is called by:
		_stateCounterHandler
 This function uses a non-reentrant model


 *************** function _updateStateIds *****************
 Defined at:
		line 171 in file "currentStateHandler.c"
 Parameters:    Size  Location     Type
		None
 Auto vars:     Size  Location     Type
		None
 Return value:  Size  Location     Type
                  1    wreg      void 
 Registers used:
		wreg, status,2
 Tracked objects:
		On entry : 
		On exit  : 
		Unchanged: 
 Data sizes:     COMRAM   BANK0   BANK1   BANK2   BANK3   BANK4   BANK5   BANK6   BANK7   BANK8   BANK9  BANK10  BANK11  BANK12  BANK13
      Params:         0       0       0       0       0       0       0       0       0       0       0       0       0       0       0
      Locals:         0       0       0       0       0       0       0       0       0       0       0       0       0       0       0
      Temps:          0       0       0       0       0       0       0       0       0       0       0       0       0       0       0
      Totals:         0       0       0       0       0       0       0       0       0       0       0       0       0       0       0
Total ram usage:        0 bytes
 Hardware stack levels used:    1
 This function calls:
		Nothing
 This function is called by:
		_checkCounter
 This function uses a non-reentrant model


 *************** function _checkOutgoingMessages *****************
 Defined at:
		line 103 in file "outgoingMessages.c"
 Parameters:    Size  Location     Type
		None
 Auto vars:     Size  Location     Type
		None
 Return value:  Size  Location     Type
                  1    wreg      void 
 Registers used:
		None
 Tracked objects:
		On entry : 
		On exit  : 
		Unchanged: 
 Data sizes:     COMRAM   BANK0   BANK1   BANK2   BANK3   BANK4   BANK5   BANK6   BANK7   BANK8   BANK9  BANK10  BANK11  BANK12  BANK13
      Params:         0       0       0       0       0       0       0       0       0       0       0       0       0       0       0
      Locals:         0       0       0       0       0       0       0       0       0       0       0       0       0       0       0
      Temps:          0       0       0       0       0       0       0       0       0       0       0       0       0       0       0
      Totals:         0       0       0       0       0       0       0       0       0       0       0       0       0       0       0
Total ram usage:        0 bytes
 Hardware stack levels used:    1
 This function calls:
		Nothing
 This function is called by:
		_msIsr
 This function uses a non-reentrant model


 *************** function _acOr36VISR *****************
 Defined at:
		line 28 in file "acOr36V.c"
 Parameters:    Size  Location     Type
		None
 Auto vars:     Size  Location     Type
		None
 Return value:  Size  Location     Type
                  1    wreg      void 
 Registers used:
		wreg, fsr2l, fsr2h, status,2, status,0, prodl, prodh, cstack
 Tracked objects:
		On entry : 
		On exit  : 
		Unchanged: 
 Data sizes:     COMRAM   BANK0   BANK1   BANK2   BANK3   BANK4   BANK5   BANK6   BANK7   BANK8   BANK9  BANK10  BANK11  BANK12  BANK13
      Params:         0       0       0       0       0       0       0       0       0       0       0       0       0       0       0
      Locals:         0       0       0       0       0       0       0       0       0       0       0       0       0       0       0
      Temps:          0       0       0       0       0       0       0       0       0       0       0       0       0       0       0
      Totals:         0       0       0       0       0       0       0       0       0       0       0       0       0       0       0
Total ram usage:        0 bytes
 Hardware stack levels used:    1
 Hardware stack levels required when called:    6
 This function calls:
		_checkPulse
		_wake
 This function is called by:
		_isr
 This function uses a non-reentrant model


 *************** function _wake *****************
 Defined at:
		line 58 in file "sleep.c"
 Parameters:    Size  Location     Type
		None
 Auto vars:     Size  Location     Type
		None
 Return value:  Size  Location     Type
                  1    wreg      void 
 Registers used:
		wreg, fsr2l, fsr2h, status,2, status,0, prodl, prodh, cstack
 Tracked objects:
		On entry : 
		On exit  : 
		Unchanged: 
 Data sizes:     COMRAM   BANK0   BANK1   BANK2   BANK3   BANK4   BANK5   BANK6   BANK7   BANK8   BANK9  BANK10  BANK11  BANK12  BANK13
      Params:         0       0       0       0       0       0       0       0       0       0       0       0       0       0       0
      Locals:         0       0       0       0       0       0       0       0       0       0       0       0       0       0       0
      Temps:          0       0       0       0       0       0       0       0       0       0       0       0       0       0       0
      Totals:         0       0       0       0       0       0       0       0       0       0       0       0       0       0       0
Total ram usage:        0 bytes
 Hardware stack levels used:    1
 Hardware stack levels required when called:    5
 This function calls:
		i2__delay_ms
		i2_initialiseModem
		i2_initialiseStates
		i2_reset4SecTimer
		i2_tagForInterrupt
 This function is called by:
		_acOr36VISR
 This function uses a non-reentrant model


 *************** function i2_tagForInterrupt *****************
 Defined at:
		line 79 in file "tagRead.c"
 Parameters:    Size  Location     Type
		None
 Auto vars:     Size  Location     Type
		None
 Return value:  Size  Location     Type
                  1    wreg      void 
 Registers used:
		None
 Tracked objects:
		On entry : 
		On exit  : 
		Unchanged: 
 Data sizes:     COMRAM   BANK0   BANK1   BANK2   BANK3   BANK4   BANK5   BANK6   BANK7   BANK8   BANK9  BANK10  BANK11  BANK12  BANK13
      Params:         0       0       0       0       0       0       0       0       0       0       0       0       0       0       0
      Locals:         0       0       0       0       0       0       0       0       0       0       0       0       0       0       0
      Temps:          0       0       0       0       0       0       0       0       0       0       0       0       0       0       0
      Totals:         0       0       0       0       0       0       0       0       0       0       0       0       0       0       0
Total ram usage:        0 bytes
 Hardware stack levels used:    1
 This function calls:
		Nothing
 This function is called by:
		_readTagRoutine
		_wake
 This function uses a non-reentrant model


 *************** function i2_initialiseStates *****************
 Defined at:
		line 185 in file "initialise.c"
 Parameters:    Size  Location     Type
		None
 Auto vars:     Size  Location     Type
  initialiseSt    2    3[COMRAM] int 
 Return value:  Size  Location     Type
                  1    wreg      void 
 Registers used:
		wreg, fsr2l, fsr2h, status,2, status,0, cstack
 Tracked objects:
		On entry : 
		On exit  : 
		Unchanged: 
 Data sizes:     COMRAM   BANK0   BANK1   BANK2   BANK3   BANK4   BANK5   BANK6   BANK7   BANK8   BANK9  BANK10  BANK11  BANK12  BANK13
      Params:         0       0       0       0       0       0       0       0       0       0       0       0       0       0       0
      Locals:         2       0       0       0       0       0       0       0       0       0       0       0       0       0       0
      Temps:          0       0       0       0       0       0       0       0       0       0       0       0       0       0       0
      Totals:         2       0       0       0       0       0       0       0       0       0       0       0       0       0       0
Total ram usage:        2 bytes
 Hardware stack levels used:    1
 Hardware stack levels required when called:    1
 This function calls:
		i2_initialiseState
 This function is called by:
		_wake
 This function uses a non-reentrant model


 *************** function i2_initialiseModem *****************
 Defined at:
		line 22 in file "outgoingMessages.c"
 Parameters:    Size  Location     Type
		None
 Auto vars:     Size  Location     Type
  initialiseMo    1   28[COMRAM] unsigned char 
 Return value:  Size  Location     Type
                  1    wreg      void 
 Registers used:
		wreg, fsr2l, fsr2h, status,2, status,0, prodl, prodh, cstack
 Tracked objects:
		On entry : 
		On exit  : 
		Unchanged: 
 Data sizes:     COMRAM   BANK0   BANK1   BANK2   BANK3   BANK4   BANK5   BANK6   BANK7   BANK8   BANK9  BANK10  BANK11  BANK12  BANK13
      Params:         0       0       0       0       0       0       0       0       0       0       0       0       0       0       0
      Locals:         1       0       0       0       0       0       0       0       0       0       0       0       0       0       0
      Temps:          0       0       0       0       0       0       0       0       0       0       0       0       0       0       0
      Totals:         1       0       0       0       0       0       0       0       0       0       0       0       0       0       0
Total ram usage:        1 bytes
 Hardware stack levels used:    1
 Hardware stack levels required when called:    4
 This function calls:
		i2_InitST7540
		i2_initialiseQueues
		i2_initialiseState
 This function is called by:
		_wake
 This function uses a non-reentrant model


 *************** function i2_initialiseState *****************
 Defined at:
		line 157 in file "initialise.c"
 Parameters:    Size  Location     Type
  specific        2    0[COMRAM] PTR struct .
		 -> state(61), 
  number          1    2[COMRAM] unsigned char 
 Auto vars:     Size  Location     Type
		None
 Return value:  Size  Location     Type
                  1    wreg      void 
 Registers used:
		wreg, fsr2l, fsr2h, status,2, status,0
 Tracked objects:
		On entry : 
		On exit  : 
		Unchanged: 
 Data sizes:     COMRAM   BANK0   BANK1   BANK2   BANK3   BANK4   BANK5   BANK6   BANK7   BANK8   BANK9  BANK10  BANK11  BANK12  BANK13
      Params:         3       0       0       0       0       0       0       0       0       0       0       0       0       0       0
      Locals:         0       0       0       0       0       0       0       0       0       0       0       0       0       0       0
      Temps:          0       0       0       0       0       0       0       0       0       0       0       0       0       0       0
      Totals:         3       0       0       0       0       0       0       0       0       0       0       0       0       0       0
Total ram usage:        3 bytes
 Hardware stack levels used:    1
 This function calls:
		Nothing
 This function is called by:
		i2_initialiseStates
		i2_initialiseModem
 This function uses a non-reentrant model


 *************** function i2_initialiseQueues *****************
 Defined at:
		line 96 in file "outgoingMessages.c"
 Parameters:    Size  Location     Type
		None
 Auto vars:     Size  Location     Type
		None
 Return value:  Size  Location     Type
                  1    wreg      void 
 Registers used:
		wreg, status,2
 Tracked objects:
		On entry : 
		On exit  : 
		Unchanged: 
 Data sizes:     COMRAM   BANK0   BANK1   BANK2   BANK3   BANK4   BANK5   BANK6   BANK7   BANK8   BANK9  BANK10  BANK11  BANK12  BANK13
      Params:         0       0       0       0       0       0       0       0       0       0       0       0       0       0       0
      Locals:         0       0       0       0       0       0       0       0       0       0       0       0       0       0       0
      Temps:          0       0       0       0       0       0       0       0       0       0       0       0       0       0       0
      Totals:         0       0       0       0       0       0       0       0       0       0       0       0       0       0       0
Total ram usage:        0 bytes
 Hardware stack levels used:    1
 This function calls:
		Nothing
 This function is called by:
		i2_initialiseModem
 This function uses a non-reentrant model


 *************** function i2_InitST7540 *****************
 Defined at:
		line 72 in file "ST7540.c"
 Parameters:    Size  Location     Type
		None
 Auto vars:     Size  Location     Type
  InitST7540      3   25[COMRAM] unsigned um
  InitST7540      3   22[COMRAM] unsigned um
  InitST7540      3   19[COMRAM] unsigned um
  InitST7540      3   16[COMRAM] unsigned um
 Return value:  Size  Location     Type
                  1    wreg      unsigned char 
 Registers used:
		wreg, fsr2l, fsr2h, status,2, status,0, prodl, prodh, cstack
 Tracked objects:
		On entry : 
		On exit  : 
		Unchanged: 
 Data sizes:     COMRAM   BANK0   BANK1   BANK2   BANK3   BANK4   BANK5   BANK6   BANK7   BANK8   BANK9  BANK10  BANK11  BANK12  BANK13
      Params:         0       0       0       0       0       0       0       0       0       0       0       0       0       0       0
      Locals:        12       0       0       0       0       0       0       0       0       0       0       0       0       0       0
      Temps:          0       0       0       0       0       0       0       0       0       0       0       0       0       0       0
      Totals:        12       0       0       0       0       0       0       0       0       0       0       0       0       0       0
Total ram usage:       12 bytes
 Hardware stack levels used:    1
 Hardware stack levels required when called:    3
 This function calls:
		i2_InitST7540Pins
		i2_ReadConfigST7540
		i2_WriteConfigST7540
		i2_initST7540Interrupts
 This function is called by:
		i2_initialiseModem
 This function uses a non-reentrant model


 *************** function i2_initST7540Interrupts *****************
 Defined at:
		line 364 in file "ST7540.c"
 Parameters:    Size  Location     Type
		None
 Auto vars:     Size  Location     Type
		None
 Return value:  Size  Location     Type
                  1    wreg      void 
 Registers used:
		None
 Tracked objects:
		On entry : 
		On exit  : 
		Unchanged: 
 Data sizes:     COMRAM   BANK0   BANK1   BANK2   BANK3   BANK4   BANK5   BANK6   BANK7   BANK8   BANK9  BANK10  BANK11  BANK12  BANK13
      Params:         0       0       0       0       0       0       0       0       0       0       0       0       0       0       0
      Locals:         0       0       0       0       0       0       0       0       0       0       0       0       0       0       0
      Temps:          0       0       0       0       0       0       0       0       0       0       0       0       0       0       0
      Totals:         0       0       0       0       0       0       0       0       0       0       0       0       0       0       0
Total ram usage:        0 bytes
 Hardware stack levels used:    1
 This function calls:
		Nothing
 This function is called by:
		i2_InitST7540
 This function uses a non-reentrant model


 *************** function i2_WriteConfigST7540 *****************
 Defined at:
		line 112 in file "ST7540.c"
 Parameters:    Size  Location     Type
  frameDataUS     3    5[COMRAM] unsigned um
  configDataUS    3    8[COMRAM] unsigned um
 Auto vars:     Size  Location     Type
  WriteConfigS    1   15[COMRAM] unsigned char 
  WriteConfigS    1   14[COMRAM] unsigned char 
 Return value:  Size  Location     Type
                  1    wreg      void 
 Registers used:
		wreg, fsr2l, fsr2h, status,2, status,0, prodl, prodh, cstack
 Tracked objects:
		On entry : 
		On exit  : 
		Unchanged: 
 Data sizes:     COMRAM   BANK0   BANK1   BANK2   BANK3   BANK4   BANK5   BANK6   BANK7   BANK8   BANK9  BANK10  BANK11  BANK12  BANK13
      Params:         6       0       0       0       0       0       0       0       0       0       0       0       0       0       0
      Locals:         2       0       0       0       0       0       0       0       0       0       0       0       0       0       0
      Temps:          3       0       0       0       0       0       0       0       0       0       0       0       0       0       0
      Totals:        11       0       0       0       0       0       0       0       0       0       0       0       0       0       0
Total ram usage:       11 bytes
 Hardware stack levels used:    1
 Hardware stack levels required when called:    2
 This function calls:
		i2__delay_ms
 This function is called by:
		i2_InitST7540
 This function uses a non-reentrant model


 *************** function i2__delay_ms *****************
 Defined at:
		line 139 in file "peripherals.c"
 Parameters:    Size  Location     Type
  delay           2    1[COMRAM] unsigned int 
 Auto vars:     Size  Location     Type
  _delay_ms       2    3[COMRAM] int 
 Return value:  Size  Location     Type
                  1    wreg      void 
 Registers used:
		wreg, status,2, status,0, cstack
 Tracked objects:
		On entry : 
		On exit  : 
		Unchanged: 
 Data sizes:     COMRAM   BANK0   BANK1   BANK2   BANK3   BANK4   BANK5   BANK6   BANK7   BANK8   BANK9  BANK10  BANK11  BANK12  BANK13
      Params:         2       0       0       0       0       0       0       0       0       0       0       0       0       0       0
      Locals:         2       0       0       0       0       0       0       0       0       0       0       0       0       0       0
      Temps:          0       0       0       0       0       0       0       0       0       0       0       0       0       0       0
      Totals:         4       0       0       0       0       0       0       0       0       0       0       0       0       0       0
Total ram usage:        4 bytes
 Hardware stack levels used:    1
 Hardware stack levels required when called:    1
 This function calls:
		i2__delay_us
 This function is called by:
		_SCAN_TAG
		_SCAN_TAG_1
		_tagFor0
		_tagFor1
		_wake
		i2_WriteConfigST7540
 This function uses a non-reentrant model


 *************** function i2__delay_us *****************
 Defined at:
		line 125 in file "peripherals.c"
 Parameters:    Size  Location     Type
  us              1    wreg     unsigned char 
 Auto vars:     Size  Location     Type
  us              1    0[COMRAM] unsigned char 
 Return value:  Size  Location     Type
                  1    wreg      void 
 Registers used:
		wreg, status,2, status,0
 Tracked objects:
		On entry : 
		On exit  : 
		Unchanged: 
 Data sizes:     COMRAM   BANK0   BANK1   BANK2   BANK3   BANK4   BANK5   BANK6   BANK7   BANK8   BANK9  BANK10  BANK11  BANK12  BANK13
      Params:         0       0       0       0       0       0       0       0       0       0       0       0       0       0       0
      Locals:         1       0       0       0       0       0       0       0       0       0       0       0       0       0       0
      Temps:          0       0       0       0       0       0       0       0       0       0       0       0       0       0       0
      Totals:         1       0       0       0       0       0       0       0       0       0       0       0       0       0       0
Total ram usage:        1 bytes
 Hardware stack levels used:    1
 This function calls:
		Nothing
 This function is called by:
		_SCAN_TAG
		_SCAN_TAG_1
		_UIO_WRITE
		_UIO_WRITE_1
		_UIO_SAK
		_UIO_SAK_1
		_UIO_MAK
		_UIO_MAK_1
		_UIO_noMAK
		_UIO_noMAK_1
		_rxWord
		_initialiseTagADC
		_initialiseTagADC_1
		i2__delay_ms
 This function uses a non-reentrant model


 *************** function i2_ReadConfigST7540 *****************
 Defined at:
		line 140 in file "ST7540.c"
 Parameters:    Size  Location     Type
  frameDataUS     2    0[COMRAM] PTR unsigned um
		 -> InitST7540@frameDataRXUS(3), 
  configDataUS    2    2[COMRAM] PTR unsigned um
		 -> InitST7540@configDataRXUS(3), 
 Auto vars:     Size  Location     Type
  ReadConfigST    1    8[COMRAM] unsigned char 
  ReadConfigST    1    7[COMRAM] unsigned char 
 Return value:  Size  Location     Type
                  1    wreg      void 
 Registers used:
		wreg, fsr2l, fsr2h, status,2, status,0, prodl, prodh
 Tracked objects:
		On entry : 
		On exit  : 
		Unchanged: 
 Data sizes:     COMRAM   BANK0   BANK1   BANK2   BANK3   BANK4   BANK5   BANK6   BANK7   BANK8   BANK9  BANK10  BANK11  BANK12  BANK13
      Params:         4       0       0       0       0       0       0       0       0       0       0       0       0       0       0
      Locals:         2       0       0       0       0       0       0       0       0       0       0       0       0       0       0
      Temps:          3       0       0       0       0       0       0       0       0       0       0       0       0       0       0
      Totals:         9       0       0       0       0       0       0       0       0       0       0       0       0       0       0
Total ram usage:        9 bytes
 Hardware stack levels used:    1
 This function calls:
		Nothing
 This function is called by:
		i2_InitST7540
 This function uses a non-reentrant model


 *************** function i2_InitST7540Pins *****************
 Defined at:
		line 326 in file "ST7540.c"
 Parameters:    Size  Location     Type
		None
 Auto vars:     Size  Location     Type
		None
 Return value:  Size  Location     Type
                  1    wreg      void 
 Registers used:
		wreg, status,2, cstack
 Tracked objects:
		On entry : 
		On exit  : 
		Unchanged: 
 Data sizes:     COMRAM   BANK0   BANK1   BANK2   BANK3   BANK4   BANK5   BANK6   BANK7   BANK8   BANK9  BANK10  BANK11  BANK12  BANK13
      Params:         0       0       0       0       0       0       0       0       0       0       0       0       0       0       0
      Locals:         0       0       0       0       0       0       0       0       0       0       0       0       0       0       0
      Temps:          0       0       0       0       0       0       0       0       0       0       0       0       0       0       0
      Totals:         0       0       0       0       0       0       0       0       0       0       0       0       0       0       0
Total ram usage:        0 bytes
 Hardware stack levels used:    1
 Hardware stack levels required when called:    2
 This function calls:
		i2_initST7540PPS
 This function is called by:
		i2_InitST7540
 This function uses a non-reentrant model


 *************** function i2_initST7540PPS *****************
 Defined at:
		line 356 in file "ST7540.c"
 Parameters:    Size  Location     Type
		None
 Auto vars:     Size  Location     Type
		None
 Return value:  Size  Location     Type
                  1    wreg      void 
 Registers used:
		wreg, status,2, cstack
 Tracked objects:
		On entry : 
		On exit  : 
		Unchanged: 
 Data sizes:     COMRAM   BANK0   BANK1   BANK2   BANK3   BANK4   BANK5   BANK6   BANK7   BANK8   BANK9  BANK10  BANK11  BANK12  BANK13
      Params:         0       0       0       0       0       0       0       0       0       0       0       0       0       0       0
      Locals:         0       0       0       0       0       0       0       0       0       0       0       0       0       0       0
      Temps:          0       0       0       0       0       0       0       0       0       0       0       0       0       0       0
      Totals:         0       0       0       0       0       0       0       0       0       0       0       0       0       0       0
Total ram usage:        0 bytes
 Hardware stack levels used:    1
 Hardware stack levels required when called:    1
 This function calls:
		i2_ppsLock
		i2_ppsUnlock
 This function is called by:
		i2_InitST7540Pins
 This function uses a non-reentrant model


 *************** function i2_ppsUnlock *****************
 Defined at:
		line 160 in file "peripherals.c"
 Parameters:    Size  Location     Type
		None
 Auto vars:     Size  Location     Type
		None
 Return value:  Size  Location     Type
                  1    wreg      void 
 Registers used:
		wreg, status,2
 Tracked objects:
		On entry : 
		On exit  : 
		Unchanged: 
 Data sizes:     COMRAM   BANK0   BANK1   BANK2   BANK3   BANK4   BANK5   BANK6   BANK7   BANK8   BANK9  BANK10  BANK11  BANK12  BANK13
      Params:         0       0       0       0       0       0       0       0       0       0       0       0       0       0       0
      Locals:         0       0       0       0       0       0       0       0       0       0       0       0       0       0       0
      Temps:          0       0       0       0       0       0       0       0       0       0       0       0       0       0       0
      Totals:         0       0       0       0       0       0       0       0       0       0       0       0       0       0       0
Total ram usage:        0 bytes
 Hardware stack levels used:    1
 This function calls:
		Nothing
 This function is called by:
		i2_initST7540PPS
 This function uses a non-reentrant model


 *************** function i2_ppsLock *****************
 Defined at:
		line 148 in file "peripherals.c"
 Parameters:    Size  Location     Type
		None
 Auto vars:     Size  Location     Type
		None
 Return value:  Size  Location     Type
                  1    wreg      void 
 Registers used:
		wreg, status,2
 Tracked objects:
		On entry : 
		On exit  : 
		Unchanged: 
 Data sizes:     COMRAM   BANK0   BANK1   BANK2   BANK3   BANK4   BANK5   BANK6   BANK7   BANK8   BANK9  BANK10  BANK11  BANK12  BANK13
      Params:         0       0       0       0       0       0       0       0       0       0       0       0       0       0       0
      Locals:         0       0       0       0       0       0       0       0       0       0       0       0       0       0       0
      Temps:          0       0       0       0       0       0       0       0       0       0       0       0       0       0       0
      Totals:         0       0       0       0       0       0       0       0       0       0       0       0       0       0       0
Total ram usage:        0 bytes
 Hardware stack levels used:    1
 This function calls:
		Nothing
 This function is called by:
		i2_initST7540PPS
 This function uses a non-reentrant model


 *************** function _checkPulse *****************
 Defined at:
		line 41 in file "acOr36V.c"
 Parameters:    Size  Location     Type
		None
 Auto vars:     Size  Location     Type
		None
 Return value:  Size  Location     Type
                  1    wreg      void 
 Registers used:
		wreg, fsr2l, fsr2h, status,2, status,0, cstack
 Tracked objects:
		On entry : 
		On exit  : 
		Unchanged: 
 Data sizes:     COMRAM   BANK0   BANK1   BANK2   BANK3   BANK4   BANK5   BANK6   BANK7   BANK8   BANK9  BANK10  BANK11  BANK12  BANK13
      Params:         0       0       0       0       0       0       0       0       0       0       0       0       0       0       0
      Locals:         0       0       0       0       0       0       0       0       0       0       0       0       0       0       0
      Temps:          0       0       0       0       0       0       0       0       0       0       0       0       0       0       0
      Totals:         0       0       0       0       0       0       0       0       0       0       0       0       0       0       0
Total ram usage:        0 bytes
 Hardware stack levels used:    1
 Hardware stack levels required when called:    1
 This function calls:
		_reset13msTimer
		i2_reset4SecTimer
 This function is called by:
		_acOr36VISR
 This function uses a non-reentrant model


 *************** function i2_reset4SecTimer *****************
 Defined at:
		line 70 in file "acOr36V.c"
 Parameters:    Size  Location     Type
		None
 Auto vars:     Size  Location     Type
		None
 Return value:  Size  Location     Type
                  1    wreg      void 
 Registers used:
		wreg, status,2
 Tracked objects:
		On entry : 
		On exit  : 
		Unchanged: 
 Data sizes:     COMRAM   BANK0   BANK1   BANK2   BANK3   BANK4   BANK5   BANK6   BANK7   BANK8   BANK9  BANK10  BANK11  BANK12  BANK13
      Params:         0       0       0       0       0       0       0       0       0       0       0       0       0       0       0
      Locals:         0       0       0       0       0       0       0       0       0       0       0       0       0       0       0
      Temps:          0       0       0       0       0       0       0       0       0       0       0       0       0       0       0
      Totals:         0       0       0       0       0       0       0       0       0       0       0       0       0       0       0
Total ram usage:        0 bytes
 Hardware stack levels used:    1
 This function calls:
		Nothing
 This function is called by:
		_wake
		_checkPulse
 This function uses a non-reentrant model


 *************** function _reset13msTimer *****************
 Defined at:
		line 79 in file "acOr36V.c"
 Parameters:    Size  Location     Type
		None
 Auto vars:     Size  Location     Type
		None
 Return value:  Size  Location     Type
                  1    wreg      void 
 Registers used:
		wreg, status,2
 Tracked objects:
		On entry : 
		On exit  : 
		Unchanged: 
 Data sizes:     COMRAM   BANK0   BANK1   BANK2   BANK3   BANK4   BANK5   BANK6   BANK7   BANK8   BANK9  BANK10  BANK11  BANK12  BANK13
      Params:         0       0       0       0       0       0       0       0       0       0       0       0       0       0       0
      Locals:         0       0       0       0       0       0       0       0       0       0       0       0       0       0       0
      Temps:          0       0       0       0       0       0       0       0       0       0       0       0       0       0       0
      Totals:         0       0       0       0       0       0       0       0       0       0       0       0       0       0       0
Total ram usage:        0 bytes
 Hardware stack levels used:    1
 This function calls:
		Nothing
 This function is called by:
		_checkPulse
 This function uses a non-reentrant model


 *************** function _SPIISRHandlerST7540 *****************
 Defined at:
		line 168 in file "ST7540.c"
 Parameters:    Size  Location     Type
		None
 Auto vars:     Size  Location     Type
  dataReadUC      1    0[COMRAM] unsigned char 
 Return value:  Size  Location     Type
                  1    wreg      void 
 Registers used:
		wreg, fsr2l, fsr2h, status,2, status,0, prodl, prodh
 Tracked objects:
		On entry : 
		On exit  : 
		Unchanged: 
 Data sizes:     COMRAM   BANK0   BANK1   BANK2   BANK3   BANK4   BANK5   BANK6   BANK7   BANK8   BANK9  BANK10  BANK11  BANK12  BANK13
      Params:         0       0       0       0       0       0       0       0       0       0       0       0       0       0       0
      Locals:         1       0       0       0       0       0       0       0       0       0       0       0       0       0       0
      Temps:          0       0       0       0       0       0       0       0       0       0       0       0       0       0       0
      Totals:         1       0       0       0       0       0       0       0       0       0       0       0       0       0       0
Total ram usage:        1 bytes
 Hardware stack levels used:    1
 This function calls:
		Nothing
 This function is called by:
		_isr
 This function uses a non-reentrant model


 *************** function _RXReadyISRHandlerST7540 *****************
 Defined at:
		line 196 in file "ST7540.c"
 Parameters:    Size  Location     Type
		None
 Auto vars:     Size  Location     Type
  ReadIOCC        1    0[COMRAM] unsigned char 
 Return value:  Size  Location     Type
                  1    wreg      void 
 Registers used:
		wreg
 Tracked objects:
		On entry : 
		On exit  : 
		Unchanged: 
 Data sizes:     COMRAM   BANK0   BANK1   BANK2   BANK3   BANK4   BANK5   BANK6   BANK7   BANK8   BANK9  BANK10  BANK11  BANK12  BANK13
      Params:         0       0       0       0       0       0       0       0       0       0       0       0       0       0       0
      Locals:         1       0       0       0       0       0       0       0       0       0       0       0       0       0       0
      Temps:          0       0       0       0       0       0       0       0       0       0       0       0       0       0       0
      Totals:         1       0       0       0       0       0       0       0       0       0       0       0       0       0       0
Total ram usage:        1 bytes
 Hardware stack levels used:    1
 This function calls:
		Nothing
 This function is called by:
		_isr
 This function uses a non-reentrant model



MODULE INFORMATION

Module		Function		Class		Link	Load	Size
C:\Program Files (x86)\Microchip\xc8\v1.41\sources\common\lwdiv.c
		___lwdiv       		CODE           	6246	0000	121

C:\Program Files (x86)\Microchip\xc8\v1.41\sources\common\lwdiv.c estimated size: 121

tagRead.c
		_READ_TAG      		CODE           	63A6	0000	117
		_calcrc        		CODE           	648A	0000	113
		_rxWord        		CODE           	5F82	0000	147
		_tagFor0       		CODE           	793A	0000	27
		_readTagRoutine		CODE           	6134	0000	139
		_UIO_noMAK     		CODE           	7A82	0000	19
		_UIO_noMAK_1   		CODE           	7A5E	0000	19
		_detectFallingEdge		CODE           	76F2	0000	33
		_UIO_MAK       		CODE           	7A94	0000	19
		_UIO_MAK_1     		CODE           	7A70	0000	19
		_UIO_SAK       		CODE           	7368	0000	49
		_UIO_SAK_1     		CODE           	7338	0000	49
		_addNewTag     		CODE           	33CA	0000	371
		_detectRisingEdge		CODE           	76D2	0000	33
		_UIO_WRITE     		CODE           	6B26	0000	91
		_UIO_WRITE_1   		CODE           	6ACC	0000	91
		_initialiseTagADC		CODE           	72A2	0000	53
		_initialiseTagADC_1		CODE           	726E	0000	53
		_CHECK_CRC16   		CODE           	70F6	0000	57
		_tagSleep      		CODE           	78B8	0000	27
		_checkIfTagIsRemoved		CODE           	7B5E	0000	13
		_READ_TAG_REVERSE		CODE           	6332	0000	117
		_SCAN_TAG      		CODE           	4CF8	0000	223
		_SCAN_TAG_1    		CODE           	4C1A	0000	223
		_tagFor1       		CODE           	7920	0000	27
		_initialiseTag 		CODE           	7692	0000	33
		_readTagADC    		CODE           	79B6	0000	25
		_tagForInterrupt		CODE           	7786	0000	29

tagRead.c estimated size: 2216

C:\Program Files (x86)\Microchip\xc8\v1.41\sources\common\lldiv.c
		___lldiv       		CODE           	55CE	0000	189

C:\Program Files (x86)\Microchip\xc8\v1.41\sources\common\lldiv.c estimated size: 189

sleep.c
		_sleep12V      		CODE           	7BE8	0000	5
		_wake          		CODE           	6F5C	0000	65
		_mainsWake     		CODE           	6ED8	0000	67
		_sleep         		CODE           	42E2	0000	263
		_mainsSleep    		CODE           	6C2C	0000	83

sleep.c estimated size: 483

packetQueueHandler.c
		_addPacketToIncomingQueue		CODE           	2F00	0000	437
		_addPacketToOutgoingQueue		CODE           	57FA	0000	177
		_addDataToOutgoingQueue		CODE           	2D42	0000	447
		_handleIncomingQueuePacket		CODE           	40C2	0000	277

packetQueueHandler.c estimated size: 1338

eddComms.c
		_programRetryChecks		CODE           	65D6	0000	105
		_initialiseEDDPins		CODE           	7ADC	0000	17
		_Tx_Word       		CODE           	64FA	0000	111
		_Set_Line_Low  		CODE           	7BEC	0000	5
		_Set_Line_High 		CODE           	7BF0	0000	5
		_EDD_Init_Comms		CODE           	79FC	0000	23
		_readEddADC    		CODE           	755A	0000	43
		_programUID    		CODE           	1FD8	0000	695
		_Tx_Calibration_Pulses		CODE           	5C9A	0000	151
		_commandResponse		CODE           	512C	0000	205
		_detectFallingEdgeEDD		CODE           	6896	0000	97
		_detectRisingEdgeEDD		CODE           	6C7E	0000	83
		_initialiseEddADC		CODE           	75AC	0000	41
		_EDD_Blast     		CODE           	663E	0000	105
		_rxWordEDD     		CODE           	3ACA	0000	327
		_EDD_Energy_Store		CODE           	6F1A	0000	67
		_EDD_Calibrate 		CODE           	7206	0000	53
		_checkLineForConnectedUIDs		CODE           	670C	0000	101
		_selfCheckUID  		CODE           	0CDA	0000	997
		_readUID       		CODE           	228E	0000	607
		_Tx_0          		CODE           	78EC	0000	27
		_Tx_1          		CODE           	78D2	0000	27
		_eddCommsIsr4  		CODE           	7A26	0000	21
		_eddCommsIsr8  		CODE           	5D30	0000	151

eddComms.c estimated size: 4064

initialise.c
		_initialiseState		CODE           	69B6	0000	95
		_initialiseDetWindows		CODE           	544E	0000	195
		_initialiseTimer0		CODE           	7308	0000	49
		_initialiseTimer1		CODE           	774E	0000	29
		_initialiseTimer2		CODE           	704E	0000	57
		_initialiseTimer4		CODE           	72D6	0000	51
		_initialiseTimer6		CODE           	7016	0000	57
		_initialiseTimer8		CODE           	6FDA	0000	61
		_initialiseWatchDogTimer		CODE           	7A12	0000	21
		_initialiseDetMemory		CODE           	51F8	0000	203
		_initialise    		CODE           	6B80	0000	87
		_initialise12V 		CODE           	7B80	0000	11
		_initialise24V 		CODE           	7B76	0000	11
		_initialisePic 		CODE           	7530	0000	43
		_initialiseStates		CODE           	52C2	0000	201

initialise.c estimated size: 1171

C:\Program Files (x86)\Microchip\xc8\v1.41\sources\common\Umul16.c
		___wmul        		CODE           	7166	0000	55

C:\Program Files (x86)\Microchip\xc8\v1.41\sources\common\Umul16.c estimated size: 55

outgoingMessages.c
		_outgoingMessagesStateHandler		CODE           	61BE	0000	137
		_initialiseModem		CODE           	6A14	0000	93
		_checkOutgoingMessages		CODE           	7BC4	0000	9
		_outgoingMessages		CODE           	6770	0000	101
		_initialiseQueues		CODE           	789E	0000	27

outgoingMessages.c estimated size: 367

readKeyCable.c
		_readS1StateADCSetup		CODE           	7422	0000	47
		_readKeyCable  		CODE           	5B5A	0000	163
		_turnOffCableTest		CODE           	7BE4	0000	5
		_readEDDADC    		CODE           	4A52	0000	231
		_readKeyCableStateHandler		CODE           	595A	0000	175
		_initialiseReadKeyCable		CODE           	7506	0000	43
		_readS1StateADC		CODE           	496C	0000	231
		_readEDDADCSetup		CODE           	7450	0000	47

readKeyCable.c estimated size: 942

program.c
		_program       		CODE           	776A	0000	29
		_programUIDs   		CODE           	1434	0000	829
		_prepareForProgramming		CODE           	6D70	0000	75
		_returnFromProgramming		CODE           	71D2	0000	53
		_programInitialise		CODE           	7B2E	0000	13

program.c estimated size: 999

crc16.c
		_CRC16         		CODE           	3C10	0000	309

crc16.c estimated size: 309

fire.c
		_fire          		CODE           	4B38	0000	227
		_checkForUnfiredEdds		CODE           	24EC	0000	565
		_fireUIDs      		CODE           	36AC	0000	365

fire.c estimated size: 1157

incomingCommands.c
		_incomingCommands		CODE           	6956	0000	97
		_incomingCommandsStateHandler		CODE           	67D4	0000	99

incomingCommands.c estimated size: 196

shared
		i2_initialiseState		CODE           	6BD6	0000	87
		i2_initialiseModem		CODE           	6DBA	0000	75
		i2_checkForExistingUID		CODE           	5EF0	0000	147
		i2_initST7540PPS		CODE           	782E	0000	29
		i2_Set_Line_Low		CODE           	7BF8	0000	5
		i2_WriteConfigST7540		CODE           	6014	0000	147
		i2_ReadConfigST7540		CODE           	41D6	0000	269
		i2_setBlueLed  		CODE           	7BBC	0000	9
		i2_InitST7540  		CODE           	5510	0000	191
		i2___wmul      		CODE           	7648	0000	39
		i2_Set_Line_High		CODE           	7BFC	0000	5
		i2_ppsLock     		CODE           	7866	0000	29
		__initialization		CODE           	5BFC	0000	145
		i2_InitST7540Pins		CODE           	75D4	0000	41
		i2_initialiseStates		CODE           	5DC6	0000	151
		i2_initialiseQueues		CODE           	7954	0000	27
		i2_tagForInterrupt		CODE           	7812	0000	29
		i2_addPacketToOutgoingQueue		CODE           	58AA	0000	177
		i2_initST7540Interrupts		CODE           	79CE	0000	25
		i2__delay_ms   		CODE           	712E	0000	57
		i2__delay_us   		CODE           	7730	0000	31
		i2_reset4SecTimer		CODE           	7AA6	0000	19
		i2_ppsUnlock   		CODE           	784A	0000	29

shared estimated size: 1763

acOr36V.c
		_initialiseACinterrupt		CODE           	7B22	0000	13
		_reset13msTimer		CODE           	7AB8	0000	19
		_reset4SecTimer		CODE           	7A3A	0000	19
		_sec4OverflowIsr		CODE           	799E	0000	25
		_intialiseAcOr36V		CODE           	7B16	0000	13
		_checkPulse    		CODE           	6E4C	0000	73
		_acOr36VISR    		CODE           	77F6	0000	29

acOr36V.c estimated size: 191

shaftTest.c
		_shaftTestStateHandler		CODE           	568A	0000	187
		_readEarthADCSetup		CODE           	7398	0000	47
		_initialiseShaftTest		CODE           	7086	0000	57
		_disengageRelay		CODE           	7BF4	0000	5
		_readCableADC  		CODE           	47A0	0000	231
		_shaftTest     		CODE           	4F88	0000	211
		_readCableADCSetup		CODE           	73C6	0000	47
		_readEarthADC  		CODE           	46BA	0000	231

shaftTest.c estimated size: 1016

bluetooth.c
		_initialiseBluetoothPins		CODE           	7622	0000	39
		_sendPacket    		CODE           	3818	0000	353
		_activateBluetooth		CODE           	719C	0000	55
		_power         		CODE           	62BE	0000	117
		_receiveBluetoothSetup		CODE           	6F9C	0000	63
		_initialiseBluetooth		CODE           	7BCC	0000	7
		_sleepBluetooth		CODE           	7BD2	0000	7
		_checkBluetoothCRC		CODE           	3FA6	0000	285
		_resetBluetooth		CODE           	7906	0000	27
		_readEUSART    		CODE           	7712	0000	31
		_processBTPacket		CODE           	10BE	0000	887
		_bluetoothSetupSwitch		CODE           	70BE	0000	57
		_setDeviceName 		CODE           	3D44	0000	307
		_bluetooth     		CODE           	353C	0000	369
		_bluetoothCRC  		CODE           	3258	0000	371
		_receiveBluetooth		CODE           	538A	0000	197
		_setSlaveMode  		CODE           	747E	0000	47
		_writeEUSART   		CODE           	66A6	0000	103
		_bluetoothStateHandler		CODE           	45D0	0000	235
		_initialiseUART		CODE           	74AC	0000	47

bluetooth.c estimated size: 3604

peripherals.c
		_Delay_500us_X 		CODE           	7B3A	0000	13
		_clearEDDStatusbits		CODE           	1A56	0000	707
		_Delay_100us   		CODE           	7AFA	0000	15
		_writeStructureToEeprom		CODE           	6E94	0000	69
		_us100DelayIsr 		CODE           	7BB4	0000	9
		_msIsr         		CODE           	4DD6	0000	219
		_ppsUnlock     		CODE           	77BE	0000	29
		_readStructureFromEeprom		CODE           	6CD0	0000	81
		_testMemory    		CODE           	0182	0000	2905
		_Delay_ms      		CODE           	68F6	0000	97
		_us100Isr      		CODE           	7B8A	0000	11
		__delay_ms     		CODE           	6E04	0000	73
		__delay_us     		CODE           	766E	0000	37
		_checkForExistingUID		CODE           	5A08	0000	175
		_us500Isr      		CODE           	7B6A	0000	13
		_readByteFromEeprom		CODE           	6D20	0000	81
		_ppsLock       		CODE           	77DA	0000	29
		_Delay_500us   		CODE           	7B46	0000	13
		_writeByteToEeprom		CODE           	641A	0000	113
		_variance      		CODE           	2720	0000	543

peripherals.c estimated size: 5232

main.c
		_device        		CODE           	293E	0000	517
		_main          		CODE           	6836	0000	97
		_isr           		CODE           	0008	0000	375
		_checkStatusBits		CODE           	6A70	0000	93
		_deviceStateHandler		CODE           	1D18	0000	705

main.c estimated size: 1787

readSupply.c
		_readBatteryADCSetup		CODE           	73F4	0000	47
		_readSupplyStateHandler		CODE           	44DE	0000	243
		_readMainsInterval		CODE           	723A	0000	53
		_initialiseReadSupply		CODE           	76B2	0000	33
		_readSupply    		CODE           	505A	0000	211
		_readBatteryADC		CODE           	4886	0000	231

readSupply.c estimated size: 818

currentStateHandler.c
		_stateCounterHandler		CODE           	60A6	0000	143
		_checkCounter  		CODE           	5E5C	0000	149
		_updateStateIds		CODE           	74DA	0000	45
		_currentStateHandler		CODE           	30B4	0000	421

currentStateHandler.c estimated size: 758

led.c
		_setOffLed     		CODE           	7B9C	0000	9
		_setGreenLed   		CODE           	7BA4	0000	9
		_setBlueLed    		CODE           	7BAC	0000	9
		_ledStateHandler		CODE           	2B42	0000	513
		_setRedLed     		CODE           	7B94	0000	9
		_led           		CODE           	3978	0000	339
		_initialiseLed 		CODE           	75FC	0000	39

led.c estimated size: 927

ST7540.c
		_DataReadyST7540		CODE           	7BDE	0000	7
		_PacketDataST7540		CODE           	7B08	0000	15
		_initST7540PPS 		CODE           	77A2	0000	29
		_modemSleep    		CODE           	7AEC	0000	15
		_ReceiveNewDataST7540		CODE           	7A4C	0000	19
		_StartTransmitST7540		CODE           	7986	0000	25
		_PacketReadParamST7540		CODE           	4EB0	0000	217
		_SPIISRHandlerST7540		CODE           	6568	0000	111
		_InitST7540    		CODE           	43E8	0000	247
		_initST7540Interrupts		CODE           	796E	0000	25
		_TransmitBusyST7540		CODE           	7BD8	0000	7
		_ReadConfigST7540		CODE           	3E76	0000	305
		_RXReadyISRHandlerST7540		CODE           	7ACA	0000	19
		_WriteConfigST7540		CODE           	5AB6	0000	165
		_buildMessageST7540		CODE           	1770	0000	743
		_CheckCRCST7540		CODE           	5744	0000	183
		_LineIdleST7540		CODE           	7B52	0000	13
		_InitST7540Pins		CODE           	7584	0000	41

ST7540.c estimated size: 2186

